
main:     file format elf32-scarts_32
main
architecture: scarts_32, flags 0x00000102:
EXEC_P, D_PAGED
start address 0x00000000

Program Header:
    LOAD off    0x00000078 vaddr 0x00000000 paddr 0x00000000 align 2**3
         filesz 0x00000080 memsz 0x0000008c flags rw-
    LOAD off    0x000000f8 vaddr 0x00000000 paddr 0x80000000 align 2**0
         filesz 0x00001140 memsz 0x00001140 flags r-x

Sections:
Idx Name          Size      VMA       LMA       File off  Algn  Flags
  0 .text         00001140  00000000  80000000  000000f8  2**0  CONTENTS, ALLOC, LOAD, READONLY, CODE
  1 .rodata       00000080  00000000  00000000  00000078  2**0  CONTENTS, ALLOC, LOAD, READONLY, DATA
  2 .bss          0000000c  00000080  00000080  000000f8  2**3  ALLOC
SYMBOL TABLE:
no symbols


Contents of section .text:
 0000 05100520 85a10520 85a10528 06100620  ... ... ...(... 
 0010 86a10620 86a1c628 65b0069c 070057f5  ... ...(e.....W.
 0020 45a865b1 fd9f0010 00200110 01200210  E.e...... ... ..
 0030 02200310 03200410 04200510 05200610  . ... ... ... ..
 0040 06200710 07200810 08200910 09200a10  . ... ... ... ..
 0050 0a200b10 0b200c10 0c200d10 0d200e10  . ... ... ... ..
 0060 0e200f10 0f20870e 0d100d20 7df5c70e  . ... ..... }...
 0070 0d100d20 7df5070f 0d100d20 7df5470f  ... }...... }.G.
 0080 0d100d20 7df50d10 2d208da1 0d208da1  ... }...- ... ..
 0090 0d20070f 7df5470f 7df50d10 0d208da1  . ..}.G.}.... ..
 00a0 0d208da1 cd250dee 01e00d10 0d208da1  . ...%....... ..
 00b0 7d208da1 dd240dee f95ffa5f fb5ffc5f  } ...$..._._._._
 00c0 fe5f070f 7df0fd5f 470f7df0 070f7df5  ._..}.._G.}...}.
 00d0 470f7df0 4607f61f 6de17df5 0d0fd9f0  G.}.F...m.}.....
 00e0 400d09e1 91e00210 022082a1 022082a1  @........ ... ..
 00f0 02200301 00100020 80a17020 80a13023  . ..... ..p ..0#
 0100 00ee0d0f d0f040aa 020002f5 40a802f5  ......@.....@...
 0110 40a802f5 40a802f5 00100020 80a10020  @...@...... ... 
 0120 80a10022 03f4420b 0d0fddf0 d2e123f7  ..."..B.......#.
 0130 21e011a8 10a803f4 13f711a8 10a803f4  !...............
 0140 13f711a8 10a803f4 13f711a8 10a803f4  ................
 0150 13f711a8 10a803f4 13f711a8 10a803f4  ................
 0160 13f711a8 10a803f4 13f711a8 10a803f4  ................
 0170 13f711a8 10a803f4 13f711a8 10a803f4  ................
 0180 13f711a8 10a803f4 13f711a8 10a803f4  ................
 0190 13f711a8 10a800f4 10f7400b 0d0fddf0  ..........@.....
 01a0 d0e1e0a8 020002f6 20a802f6 20a802f6  ........ ... ...
 01b0 20a802f6 20a802f6 20a802f6 20a802f6   ... ... ... ...
 01c0 20a802f6 20a802f6 00100020 80a10020   ... ...... ... 
 01d0 80a10024 02f44109 0d0fddf0 d1e112f7  ...$..A.........
 01e0 41090d0f ddf0d1e1 11a810a8 02f412f7  A...............
 01f0 11a810a8 02f412f7 11a810a8 02f412f7  ................
 0200 11a810a8 02f412f7 11a810a8 02f412f7  ................
 0210 11a810a8 02f412f7 11a810a8 02f412f7  ................
 0220 11a810a8 02f412f7 11a810a8 02f412f7  ................
 0230 11a810a8 02f412f7 11a810a8 02f412f7  ................
 0240 11a810a8 02f412f7 11a810a8 00f410f7  ................
 0250 40090d0f ddf0d0e1 e0a80100 01f620a8  @............. .
 0260 01f620a8 01f620a8 01f620a8 01f620a8  .. ... ... ... .
 0270 01f620a8 01f620a8 01f620a8 01f60010  .. ... ... .....
 0280 002080a1 002080a1 002601f4 4307f31f  . ... ...&..C...
 0290 0d0fddf0 d3e131f7 31e011a8 10a803f4  ......1.1.......
 02a0 13f711a8 10a803f4 13f711a8 10a803f4  ................
 02b0 13f711a8 10a803f4 13f711a8 10a803f4  ................
 02c0 13f711a8 10a803f4 13f711a8 10a803f4  ................
 02d0 13f711a8 10a803f4 13f711a8 10a803f4  ................
 02e0 13f711a8 10a803f4 13f711a8 10a803f4  ................
 02f0 13f711a8 10a803f4 13f711a8 10a800f4  ................
 0300 10f74007 f01f0d0f ddf0d0e1 e0a80200  ..@.............
 0310 02f620a8 02f620a8 02f620a8 02f620a8  .. ... ... ... .
 0320 02f620a8 02f620a8 02f620a8 02f620a8  .. ... ... ... .
 0330 02f62010 a02f80a1 002f80a1 0028d07b  .. ../.../...(.{
 0340 01101120 81a1212c 81a10120 e17b0d0f  ... ..!,... .{..
 0350 d0f0c0ab 01f0030c 31e57200 21e651a4  ........1.r.!.Q.
 0360 61a601f5 4d0fd3f0 43ab4d0f d3f52010  a...M...C.M... .
 0370 a02f80a1 002f80a1 0028007c 4d0fd0f0  ./.../...(.|M...
 0380 40a80310 132083a1 232c83a1 032003f5  @.... ..#,... ..
 0390 40a801f5 00100020 80a17020 80a1c027  @...... ..p ...'
 03a0 00ee4d0f d0f0c0a8 4d0fd0f5 01100120  ..M.....M...... 
 03b0 81a10120 81a10128 020ee21f 83000010  ... ...(........
 03c0 002080a1 202080a1 702700ee 0c100c20  . ..  ..p'..... 
 03d0 8ca17c20 8ca12c24 91e00cee 0b100b20  ..| ..,$....... 
 03e0 8ba18b20 8ba15b27 010092e0 03e00bee  ... ..['........
 03f0 01100120 81a10120 81a10128 02002304  ... ... ...(..#.
 0400 00100020 80a16020 80a19022 00ee0a00  ... ..` ..."....
 0410 01100120 81a12120 81a12124 01ee09e0  ... ..! ..!$....
 0420 0ab0139c 30b6209c 29b6119c 19b60d8c  ....0. .).......
 0430 0d0fd1f0 400b01e1 0cee0100 0d0fd2f0  ....@...........
 0440 430b32e1 03e00bee 9ae0e3af 0d0fd1f0  C.2.............
 0450 400901e1 0cee0100 0d0fd2f0 430932e1  @...........C.2.
 0460 03e00bee e4af0d0f d1f04207 f21f21e1  ..........B...!.
 0470 0cee0100 0d0fd2f0 4307f31f 32e103e0  ........C...2...
 0480 0beed3af 4008e01f 00f010b6 039c2100  ....@.........!.
 0490 02ac0100 4208e21f 20f020b6 218420f0  ....B... . .!. .
 04a0 30b63184 10e00ef8 4008e01f 02f01300  0.1.....@.......
 04b0 13a032e9 00103020 80a1f02f 80a1f02f  ..2...0 .../.../
 04c0 02e532e5 02b80f9c 00100020 80a10020  ..2........ ... 
 04d0 80a18028 00f003e5 32b0059c 10b8058c  ...(....2.......
 04e0 20000ef8 00000ef8 10000ef8 0ef8070f   ...............
 04f0 7df0fd5f 470f7df0 070f7df5 470f7df0  }.._G.}...}.G.}.
 0500 4dab7df5 0d0fd0f0 c0ab04e0 41f50d0f  M.}.........A...
 0510 d0f080ab 01e012f5 0d0fd0f0 70ab02e0  ............p...
 0520 23f70d0f d0f0c0ab 04e041f0 0d0fd0f0  #.........A.....
 0530 80ab02e0 20f014e0 40f50d0f d0f0c0ab  .... ...@.......
 0540 01e010f0 01e041a8 0d0fd0f0 70ab02e0  ......A.....p...
 0550 20f414e0 40f7470f 7df0cda8 7df5070f   ...@.G.}...}...
 0560 0d4c7df5 0ef8070f 7df0fd5f 470f7df0  .L}.....}.._G.}.
 0570 070f7df5 470f7df0 cdab7df5 0d0fd0f0  ..}.G.}...}.....
 0580 c0ab02e0 21f5470f 7df04da8 7df5070f  ....!.G.}.M.}...
 0590 0d4c7df5 0ef8070f 7df0fd5f 470f7df0  .L}.....}.._G.}.
 05a0 070f7df5 470f7df0 4dab7df5 0d0fd0f0  ..}.G.}.M.}.....
 05b0 80ab03e0 31f50d0f d0f060ab 01e012f6  ....1.....`.....
 05c0 0d0fd0f0 80ab02e0 20f003e0 30f001e0  ........ ...0...
 05d0 41a80d0f d0f0c0ab 02e021f5 0d0fd0f0  A.........!.....
 05e0 c0ab03e0 31f00d0f d0f060ab 02e020f2  ....1.....`... .
 05f0 13e030f6 470f7df0 cda87df5 070f0d4c  ..0.G.}...}....L
 0600 7df50ef8 070f7df0 fd5f470f 7df0070f  }.....}.._G.}...
 0610 7df5470f 7df04dab 7df50d0f d0f080ab  }.G.}.M.}.......
 0620 04e041f5 0d0fd0f0 70ab01e0 12f70d0f  ..A.....p.......
 0630 d0f060ab 02e023f7 0d0fd0f0 80ab04e0  ..`...#.........
 0640 40f001e0 10f001e0 61a80d0f d0f0c0ab  @.......a.......
 0650 02e021f5 0d0fd0f0 70ab04e0 40f4f103  ..!.....p...@...
 0660 10e560a4 01e00d0f d0f0c0ab 02e020f0  ..`........... .
 0670 04e041f7 0d0fd0f0 80ab01e0 10f002e0  ..A.............
 0680 20f001e0 71a80d0f d0f0c0ab 04e041f5   ...q.........A.
 0690 0d0fd0f0 c0ab02e0 21f00d0f d0f060ab  ........!.....`.
 06a0 04e040f4 12e020f7 470f7df0 cda87df5  ..@... .G.}...}.
 06b0 070f0d4c 7df50ef8 fe5f070f 7df0fd5f  ...L}...._..}.._
 06c0 470f7df0 070f7df5 470f7df0 0dab7df5  G.}...}.G.}...}.
 06d0 0d0fd0f0 80ab04e0 41f50d0f d0f070ab  ........A.....p.
 06e0 01e012f7 0d0fd0f0 60ab02e0 23f70d0f  ........`...#...
 06f0 d1f0c1ab 000014e0 40f50d0f d1f0c1ab  ........@.......
 0700 000012e0 20f551ac 0d0fd0f0 c0ab04e0  .... .Q.........
 0710 40f001e0 0d0fd0f0 70ab02e0 20f410e1  @.......p... ...
 0720 04e00d0f d0f060ab 01e010f4 820120a0  ......`....... .
 0730 810110a2 a2000310 032083a1 732083a1  ......... ..s ..
 0740 232201e0 03ee03e0 0d0fd0f0 80ab02e0  #"..............
 0750 20f001e0 42e00010 002080a1 302080a1   ...B.... ..0 ..
 0760 202000ee 0d0fd4f0 64ab0d0f d0f060ab    ......d.....`.
 0770 01e010f4 820120a0 810110a2 a2000310  ...... .........
 0780 032083a1 732083a1 f32001e0 03ee42e0  . ..s ... ....B.
 0790 20f70d0f d1f0c1ab 0d0fd0f0 c0ab04e0   ...............
 07a0 40f010a8 12e020f5 0d0fd0f0 80ab04e0  @..... .........
 07b0 40f040a8 01e010f4 820120a0 840140a2  @.@....... ...@.
 07c0 3d00d0b4 129c0d0f d0f080ab 01e010f0  =...............
 07d0 40a802e0 20f404e0 810114a0 c47bc26b  @... ........{.k
 07e0 840142a2 c27b03ac 3000c07b 0d0fd0f0  ..B..{..0..{....
 07f0 c0ab01e0 10f0c26b 02b2879f 470f7df0  .......k....G.}.
 0800 06016de1 7df5070f 0d4c7df5 0e4c0ef8  ..m.}....L}..L..
 0810 fe5f070f 7df0fd5f 470f7df0 070f7df5  ._..}.._G.}...}.
 0820 470f7df0 0dab7df5 0d0fd0f0 80ab04e0  G.}...}.........
 0830 41f50d0f d0f070ab 01e012f7 0d0fd0f0  A.....p.........
 0840 40ab02e0 23f60d0f d1f0c1ab 000014e0  @...#...........
 0850 40f50d0f d1f0c1ab 000012e0 20f551ac  @........... .Q.
 0860 0d0fd0f0 c0ab04e0 40f001e0 0d0fd0f0  ........@.......
 0870 70ab02e0 20f410e1 04e00d0f d0f040ab  p... .........@.
 0880 01e010f2 020120a0 010110a2 a2000310  ...... .........
 0890 032083a1 732083a1 232201e0 03ee03e0  . ..s ..#"......
 08a0 0d0fd0f0 80ab02e0 20f001e0 42e00010  ........ ...B...
 08b0 002080a1 302080a1 202000ee 0d0fd4f0  . ..0 ..  ......
 08c0 44ab0d0f d0f040ab 01e010f2 020120a0  D.....@....... .
 08d0 010110a2 a2000310 032083a1 732083a1  ......... ..s ..
 08e0 f32001e0 03ee42e0 20f60d0f d1f0c1ab  . ....B. .......
 08f0 0d0fd0f0 c0ab04e0 40f010a8 12e020f5  ........@..... .
 0900 0d0fd0f0 80ab04e0 40f040a8 01e010f4  ........@.@.....
 0910 820120a0 840140a2 5d00d0b4 129c0d0f  .. ...@.].......
 0920 d0f080ab 01e010f0 40a802e0 20f404e0  ........@... ...
 0930 810114a0 c47bc26b 840142a2 c27b03ac  .....{.k..B..{..
 0940 5000c07b 0d0fd0f0 c0ab01e0 10f0c26b  P..{...........k
 0950 02b2879f 470f7df0 06016de1 7df5070f  ....G.}...m.}...
 0960 0d4c7df5 0e4c0ef8 fe5f070f 7df0fd5f  .L}..L..._..}.._
 0970 470f7df0 070f7df5 470f7df0 c60e6de1  G.}...}.G.}...m.
 0980 7df50d0f d0f080ab 04e041f5 0d0fd0f0  }.........A.....
 0990 70ab01e0 12f70d0f d0f000ab 02e023f5  p.............#.
 09a0 0d0fd1f0 c1ab0000 14e040f5 0d0fd1f0  ..........@.....
 09b0 c1ab0000 12e020f5 49ac0d0f d0f0c0ab  ...... .I.......
 09c0 04e040f0 01e00d0f d0f070ab 02e020f4  ..@.......p... .
 09d0 10e104e0 0d0fd0f0 00ab01e0 10f0a200  ................
 09e0 03100320 83a17320 83a12322 01e003ee  ... ..s ..#"....
 09f0 03e00d0f d0f080ab 02e020f0 01e042e0  .......... ...B.
 0a00 00100020 80a13020 80a12020 00ee0d0f  ... ..0 ..  ....
 0a10 d4f004ab 0d0fd0f0 00ab01e0 10f0a200  ................
 0a20 03100320 83a17320 83a1f320 01e003ee  ... ..s ... ....
 0a30 42e020f5 0d0fd1f0 c1ab0d0f d0f0c0ab  B. .............
 0a40 04e040f0 10a812e0 20f50d0f d0f080ab  ..@..... .......
 0a50 04e040f0 40a801e0 10f48201 20a08401  ..@.@....... ...
 0a60 40a2ad00 d0b4129c 0d0fd0f0 80ab01e0  @...............
 0a70 10f040a8 02e020f4 04e08101 14a0b47b  ..@... ........{
 0a80 b26b8401 42a2b27b 03aca000 b07b0d0f  .k..B..{.....{..
 0a90 d0f0c0ab 01e010f0 b26b02b2 8f9f470f  .........k....G.
 0aa0 7df04601 6de17df5 070f0d4c 7df50e4c  }.F.m.}....L}..L
 0ab0 0ef8fe5f 070f7df0 fd5f470f 7df0070f  ..._..}.._G.}...
 0ac0 7df5470f 7df08dab 7df50d0f d0f0c0ab  }.G.}...}.......
 0ad0 04e041f5 0d0fd0f0 b0ab01e0 12f70d0f  ..A.............
 0ae0 d0f0a0ab 02e023f7 0d0fd0f0 a0ab04e0  ......#.........
 0af0 40f4f100 10e503e0 0d0fd0f0 c0ab02e0  @...............
 0b00 21f00d0f d0f0b0ab 04e040f4 02e00010  !.........@.....
 0b10 002080a1 302080a1 202000ee 0d0fd0f0  . ..0 ..  ......
 0b20 b0ab01e0 10f410a8 02e00d0f d0f0a0ab  ................
 0b30 04e040f4 810110a0 840140a2 40a303e0  ..@.......@.@...
 0b40 0d0fd0f0 c0ab01e0 10f001e0 00100020  ............... 
 0b50 80a13020 80a12020 00ee470f 7df08da8  ..0 ..  ..G.}...
 0b60 7df5070f 0d4c7df5 0e4c0ef8 fe5f070f  }....L}..L..._..
 0b70 7df0fd5f 470f7df0 070f7df5 470f7df0  }.._G.}...}.G.}.
 0b80 4dab7df5 0d0fd0f0 80ab04e0 41f50d0f  M.}.........A...
 0b90 d0f070ab 01e012f7 0d0fd0f0 40ab02e0  ..p.........@...
 0ba0 23f60d0f d1f0c1ab 000013e0 30f50d0f  #...........0...
 0bb0 d1f0c1ab 000014e0 40f53cac 0d0fd0f0  ........@.<.....
 0bc0 c0ab01e0 10f001e0 0d0fd0f0 70ab02e0  ............p...
 0bd0 20f410e1 02e00d0f d0f040ab 03e030f2   .........@...0.
 0be0 01e00401 41a00001 01a20d0f d0f0c0ab  ....A...........
 0bf0 03e030f0 20a114e0 04e840e0 f10010e5  ..0. .....@.....
 0c00 03e00d0f d0f080ab 04e040f0 01e00010  ..........@.....
 0c10 002080a1 302080a1 202000ee 0d0fd1f0  . ..0 ..  ......
 0c20 c1ab0d0f d0f0c0ab 02e020f0 10a813e0  .......... .....
 0c30 30f50d0f d0f0c0ab 04e040f0 3038bf8f  0.........@.08..
 0c40 470f7df0 cda87df5 070f0d4c 7df50e4c  G.}...}....L}..L
 0c50 0ef8fe5f 070f7df0 fd5f470f 7df0070f  ..._..}.._G.}...
 0c60 7df5470f 7df00dab 7df50d0f d0f080ab  }.G.}...}.......
 0c70 04e041f5 0d0fd0f0 70ab01e0 12f70d0f  ..A.....p.......
 0c80 d0f000ab 02e023f5 0d0fd1f0 c1ab0000  ......#.........
 0c90 13e030f5 0d0fd1f0 c1ab0000 14e040f5  ..0...........@.
 0ca0 36ac0d0f d0f0c0ab 01e010f0 01e00d0f  6...............
 0cb0 d0f070ab 02e020f4 10e102e0 0d0fd0f0  ..p... .........
 0cc0 c0ab03e0 30f001e0 21a10d0f d0f000ab  ....0...!.......
 0cd0 04e040f0 10a2f100 10e503e0 0d0fd0f0  ..@.............
 0ce0 80ab04e0 40f001e0 00100020 80a13020  ....@...... ..0 
 0cf0 80a12020 00ee0d0f d1f0c1ab 0d0fd0f0  ..  ............
 0d00 c0ab02e0 20f010a8 13e030f5 0d0fd0f0  .... .....0.....
 0d10 c0ab04e0 40f07038 c58f470f 7df00601  ....@.p8..G.}...
 0d20 6de17df5 070f0d4c 7df50e4c 0ef8070f  m.}....L}..L....
 0d30 7df0fd5f 470f7df0 070f7df5 470f7df0  }.._G.}...}.G.}.
 0d40 4dab7df5 0d0fd0f0 80ab03e0 31f50d0f  M.}.........1...
 0d50 d0f070ab 01e012f7 0d0fd0f0 80ab02e0  ..p.............
 0d60 20f003e0 30f001e0 61a80d0f d0f0c0ab   ...0...a.......
 0d70 02e021f5 0d0fd0f0 70ab03e0 30f4f103  ..!.....p...0...
 0d80 10e501e0 000c10e6 01e00d0f d0f0c0ab  ................
 0d90 02e020f0 03e031f7 0d0fd0f0 80ab01e0  .. ...1.........
 0da0 10f002e0 20f001e0 71a80d0f d0f0c0ab  .... ...q.......
 0db0 03e031f5 0d0fd0f0 c0ab01e0 10f002e0  ..1.............
 0dc0 20f48301 30a08101 10a2470f 7df0cda8   ...0.....G.}...
 0dd0 7df5070f 0d4c7df5 0ef8070f 7df0fd5f  }....L}.....}.._
 0de0 470f7df0 070f7df5 470f7df0 8dab7df5  G.}...}.G.}...}.
 0df0 0d0fd0f0 c0ab04e0 41f50d0f d0f0b0ab  ........A.......
 0e00 01e012f7 0d0fd0f0 a0ab04e0 43f7470f  ............C.G.
 0e10 7df08da8 7df5070f 0d4c7df5 0ef802b8  }...}....L}.....
 0e20 119c01b8 10d00e9c 2de0f2b7 1281fe8f  ........-.......
 0e30 0000d2b3 079c10a1 12b421c3 108812a3  ..........!.....
 0e40 f9af0ef8 02b80e9c 01b810d0 0b9c2de0  ..............-.
 0e50 f2b71281 fe8fd2b3 059c12b4 21c312a3  ............!...
 0e60 fbaf10e0 0ef815e0 03b80b9c 040051e0  ..............Q.
 0e70 41e120e0 40e100f4 10f714a8 34b0f88f  A. .@.......4...
 0e80 50e00ef8 10f300b8 089c12e0 12a820f3  P............. .
 0e90 00b8fd8f 20e010e3 0ef800fe ffaf8008  .... ...........
 0ea0 020202f7 90ab00f4 20b6069c 00fe1008  ........ .......
 0eb0 00f420b6 fc8f1008 02f400f4 50b60d8c  .. .........P...
 0ec0 22001008 00f430b6 0c8c6008 00f28008  ".....0...`.....
 0ed0 810201f7 32000dac 62a31400 42e5f2af  ....2...b...B...
 0ee0 600803f2 20a88402 04f702b8 028c13f7  `... ...........
 0ef0 20e00ef8 00000ef8 f95ffe5f 070f7df0   ........_._..}.
 0f00 fd5f470f 7df0070f 7df50d0f d0f0c0a8  ._G.}...}.......
 0f10 07f003e0 83a831f0 f40041e5 16e004e0  ......1...A.....
 0f20 44a842f0 02b8609c 35080900 59f707f5  D.B...`.5...Y...
 0f30 30f0090f 90e510e6 30f542f5 33f00103  0.......0.B.3...
 0f40 31e501b8 478c63b6 3c9cf300 63e533b6  1...G.c.<...c.3.
 0f50 319c23b6 289c13b6 1f9c03b6 189c3108  1.#.(.........1.
 0f60 10f440a4 10f771e0 00100020 80a17020  ..@...q.... ..p 
 0f70 80a1f020 00ee02e0 42a14401 40a08501  ... ....B.D.@...
 0f80 50a25108 10f74008 02f72eac 310810f4  P.Q...@.....1...
 0f90 00a410f7 e5af3108 10f410a4 10f703b6  ......1.........
 0fa0 df8ff5af 310810f4 20a410f7 13b6d68f  ....1... .......
 0fb0 f3af3108 10f430a4 10f723b6 cd8ff3af  ..1...0...#.....
 0fc0 310810f4 50a410f7 f30063e5 33b6c28f  1...P.....c.3...
 0fd0 f1af50f4 080880e6 50f701b9 b58f50f4  ..P.....P.....P.
 0fe0 60a450f7 b1af070f 0d4c7df5 0e4c094c  `.P......L}..L.L
 0ff0 0ef80000 0ef8f95f fa5ffb5f fc5ffe5f  ......._._._._._
 1000 070f7df0 fd5f470f 7df0070f 7df5470f  ..}.._G.}...}.G.
 1010 7df0cdab 7df52ce0 3be00338 178c0900  }...}.,.;..8....
 1020 0d0fdaf0 faaba1e0 02100220 82a17220  ........... ..r 
 1030 82a1f224 02ee00b8 0a8c90e0 c0e1a1f4  ...$............
 1040 01f719a8 9bb0f08f 02ac0900 90e0470f  ..............G.
 1050 7df04da8 7df5070f 0d4c7df5 0e4c0c4c  }.M.}....L}..L.L
 1060 0b4c0a4c 094c0ef8 f95ffa5f fb5ffc5f  .L.L.L..._._._._
 1070 fe5f070f 7df0fd5f 470f7df0 070f7df5  ._..}.._G.}...}.
 1080 470f7df0 cdab7df5 2be03ce0 03381f8c  G.}...}.+.<..8..
 1090 0a000d0f d9f0f9ab 91e00210 022082a1  ............. ..
 10a0 722082a1 f22402ee 00b80d8c 91f490f3  r ...$..........
 10b0 d0b8079c a0b8079c b0e0a0e1 01f71aa8  ................
 10c0 cab1eb9f abe10200 b2f702ac 0a00a0e0  ................
 10d0 470f7df0 4da87df5 070f0d4c 7df50e4c  G.}.M.}....L}..L
 10e0 0c4c0b4c 0a4c094c 0ef80338 278c0400  .L.L.L.L...8'...
 10f0 40e020e1 01f41008 00f410b6 069c00fe  @. .............
 1100 100800f4 10b6fc8f 10e08501 50a050e8  ............P.P.
 1110 610810f6 80088101 01f790ab 00f410b6  a...............
 1120 069c00fe 100800f4 10b6fc8f 80080500  ................
 1130 05f714a8 43b0dd8f 02ac0300 30e00ef8  ....C.......0...
Contents of section .rodata:
 0000 0a0d4861 6c6c6f20 57656c74 210a0d00  ..Hallo Welt!...
 0010 00000000 00000000 00000000 00000000  ................
 0020 50757368 62757474 6f6e2031 0d000000  Pushbutton 1....
 0030 00000000 00000000 00000000 00000000  ................
 0040 50757368 62757474 6f6e2032 0d000000  Pushbutton 2....
 0050 00000000 00000000 00000000 00000000  ................
 0060 50757368 62757474 6f6e2033 0d000000  Pushbutton 3....
 0070 00000000 00000000 00000000 00000000  ................

Disassembly of section .text:

00000000 <.text>:
       0:	05 10       	ldhi r5,0
       2:	05 20       	ldliu r5,0x0
       4:	85 a1       	sli r5,0x8
       6:	05 20       	ldliu r5,0x0
       8:	85 a1       	sli r5,0x8
       a:	05 28       	ldliu r5,0x80
       c:	06 10       	ldhi r6,0
       e:	06 20       	ldliu r6,0x0
      10:	86 a1       	sli r6,0x8
      12:	06 20       	ldliu r6,0x0
      14:	86 a1       	sli r6,0x8
      16:	c6 28       	ldliu r6,0x8c
      18:	65 b0       	cmp_eq r5,r6
      1a:	06 9c       	jmpi_ct 6
      1c:	07 00       	ldli r7,0
      1e:	57 f5       	stw r7,r5
      20:	45 a8       	addi r5,4
      22:	65 b1       	cmp_lt r5,r6
      24:	fd 9f       	jmpi_ct -3
      26:	00 10       	ldhi r0,0
      28:	00 20       	ldliu r0,0x0
      2a:	01 10       	ldhi r1,0
      2c:	01 20       	ldliu r1,0x0
      2e:	02 10       	ldhi r2,0
      30:	02 20       	ldliu r2,0x0
      32:	03 10       	ldhi r3,0
      34:	03 20       	ldliu r3,0x0
      36:	04 10       	ldhi r4,0
      38:	04 20       	ldliu r4,0x0
      3a:	05 10       	ldhi r5,0
      3c:	05 20       	ldliu r5,0x0
      3e:	06 10       	ldhi r6,0
      40:	06 20       	ldliu r6,0x0
      42:	07 10       	ldhi r7,0
      44:	07 20       	ldliu r7,0x0
      46:	08 10       	ldhi r8,0
      48:	08 20       	ldliu r8,0x0
      4a:	09 10       	ldhi r9,0
      4c:	09 20       	ldliu r9,0x0
      4e:	0a 10       	ldhi r10,0
      50:	0a 20       	ldliu r10,0x0
      52:	0b 10       	ldhi r11,0
      54:	0b 20       	ldliu r11,0x0
      56:	0c 10       	ldhi r12,0
      58:	0c 20       	ldliu r12,0x0
      5a:	0d 10       	ldhi r13,0
      5c:	0d 20       	ldliu r13,0x0
      5e:	0e 10       	ldhi r14,0
      60:	0e 20       	ldliu r14,0x0
      62:	0f 10       	ldhi r15,0
      64:	0f 20       	ldliu r15,0x0
      66:	87 0e       	ldli r7,-24
      68:	0d 10       	ldhi r13,0
      6a:	0d 20       	ldliu r13,0x0
      6c:	7d f5       	stw r13,r7
      6e:	c7 0e       	ldli r7,-20
      70:	0d 10       	ldhi r13,0
      72:	0d 20       	ldliu r13,0x0
      74:	7d f5       	stw r13,r7
      76:	07 0f       	ldli r7,-16
      78:	0d 10       	ldhi r13,0
      7a:	0d 20       	ldliu r13,0x0
      7c:	7d f5       	stw r13,r7
      7e:	47 0f       	ldli r7,-12
      80:	0d 10       	ldhi r13,0
      82:	0d 20       	ldliu r13,0x0
      84:	7d f5       	stw r13,r7
      86:	0d 10       	ldhi r13,0
      88:	2d 20       	ldliu r13,0x2
      8a:	8d a1       	sli r13,0x8
      8c:	0d 20       	ldliu r13,0x0
      8e:	8d a1       	sli r13,0x8
      90:	0d 20       	ldliu r13,0x0
      92:	07 0f       	ldli r7,-16
      94:	7d f5       	stw r13,r7
      96:	47 0f       	ldli r7,-12
      98:	7d f5       	stw r13,r7
      9a:	0d 10       	ldhi r13,0
      9c:	0d 20       	ldliu r13,0x0
      9e:	8d a1       	sli r13,0x8
      a0:	0d 20       	ldliu r13,0x0
      a2:	8d a1       	sli r13,0x8
      a4:	cd 25       	ldliu r13,0x5c
      a6:	0d ee       	jsr r13
      a8:	01 e0       	mov r1,r0
      aa:	0d 10       	ldhi r13,0
      ac:	0d 20       	ldliu r13,0x0
      ae:	8d a1       	sli r13,0x8
      b0:	7d 20       	ldliu r13,0x7
      b2:	8d a1       	sli r13,0x8
      b4:	dd 24       	ldliu r13,0x4d
      b6:	0d ee       	jsr r13
      b8:	f9 5f       	stfpz_dec r9,-1
      ba:	fa 5f       	stfpz_dec r10,-1
      bc:	fb 5f       	stfpz_dec r11,-1
      be:	fc 5f       	stfpz_dec r12,-1
      c0:	fe 5f       	stfpz_dec r14,-1
      c2:	07 0f       	ldli r7,-16
      c4:	7d f0       	ldw r13,r7
      c6:	fd 5f       	stfpz_dec r13,-1
      c8:	47 0f       	ldli r7,-12
      ca:	7d f0       	ldw r13,r7
      cc:	07 0f       	ldli r7,-16
      ce:	7d f5       	stw r13,r7
      d0:	47 0f       	ldli r7,-12
      d2:	7d f0       	ldw r13,r7
      d4:	46 07       	ldli r6,116
      d6:	f6 1f       	ldhi r6,-1
      d8:	6d e1       	add r13,r6
      da:	7d f5       	stw r13,r7
      dc:	0d 0f       	ldli r13,-16
      de:	d9 f0       	ldw r9,r13
      e0:	40 0d       	ldli r0,-44
      e2:	09 e1       	add r9,r0
      e4:	91 e0       	mov r1,r9
      e6:	02 10       	ldhi r2,0
      e8:	02 20       	ldliu r2,0x0
      ea:	82 a1       	sli r2,0x8
      ec:	02 20       	ldliu r2,0x0
      ee:	82 a1       	sli r2,0x8
      f0:	02 20       	ldliu r2,0x0
      f2:	03 01       	ldli r3,16
      f4:	00 10       	ldhi r0,0
      f6:	00 20       	ldliu r0,0x0
      f8:	80 a1       	sli r0,0x8
      fa:	70 20       	ldliu r0,0x7
      fc:	80 a1       	sli r0,0x8
      fe:	30 23       	ldliu r0,0x33
     100:	00 ee       	jsr r0
     102:	0d 0f       	ldli r13,-16
     104:	d0 f0       	ldw r0,r13
     106:	40 aa       	addi r0,-28
     108:	02 00       	ldli r2,0
     10a:	02 f5       	stw r2,r0
     10c:	40 a8       	addi r0,4
     10e:	02 f5       	stw r2,r0
     110:	40 a8       	addi r0,4
     112:	02 f5       	stw r2,r0
     114:	40 a8       	addi r0,4
     116:	02 f5       	stw r2,r0
     118:	00 10       	ldhi r0,0
     11a:	00 20       	ldliu r0,0x0
     11c:	80 a1       	sli r0,0x8
     11e:	00 20       	ldliu r0,0x0
     120:	80 a1       	sli r0,0x8
     122:	00 22       	ldliu r0,0x20
     124:	03 f4       	ldbu r3,r0
     126:	42 0b       	ldli r2,-76
     128:	0d 0f       	ldli r13,-16
     12a:	dd f0       	ldw r13,r13
     12c:	d2 e1       	add r2,r13
     12e:	23 f7       	stb r3,r2
     130:	21 e0       	mov r1,r2
     132:	11 a8       	addi r1,1
     134:	10 a8       	addi r0,1
     136:	03 f4       	ldbu r3,r0
     138:	13 f7       	stb r3,r1
     13a:	11 a8       	addi r1,1
     13c:	10 a8       	addi r0,1
     13e:	03 f4       	ldbu r3,r0
     140:	13 f7       	stb r3,r1
     142:	11 a8       	addi r1,1
     144:	10 a8       	addi r0,1
     146:	03 f4       	ldbu r3,r0
     148:	13 f7       	stb r3,r1
     14a:	11 a8       	addi r1,1
     14c:	10 a8       	addi r0,1
     14e:	03 f4       	ldbu r3,r0
     150:	13 f7       	stb r3,r1
     152:	11 a8       	addi r1,1
     154:	10 a8       	addi r0,1
     156:	03 f4       	ldbu r3,r0
     158:	13 f7       	stb r3,r1
     15a:	11 a8       	addi r1,1
     15c:	10 a8       	addi r0,1
     15e:	03 f4       	ldbu r3,r0
     160:	13 f7       	stb r3,r1
     162:	11 a8       	addi r1,1
     164:	10 a8       	addi r0,1
     166:	03 f4       	ldbu r3,r0
     168:	13 f7       	stb r3,r1
     16a:	11 a8       	addi r1,1
     16c:	10 a8       	addi r0,1
     16e:	03 f4       	ldbu r3,r0
     170:	13 f7       	stb r3,r1
     172:	11 a8       	addi r1,1
     174:	10 a8       	addi r0,1
     176:	03 f4       	ldbu r3,r0
     178:	13 f7       	stb r3,r1
     17a:	11 a8       	addi r1,1
     17c:	10 a8       	addi r0,1
     17e:	03 f4       	ldbu r3,r0
     180:	13 f7       	stb r3,r1
     182:	11 a8       	addi r1,1
     184:	10 a8       	addi r0,1
     186:	03 f4       	ldbu r3,r0
     188:	13 f7       	stb r3,r1
     18a:	11 a8       	addi r1,1
     18c:	10 a8       	addi r0,1
     18e:	03 f4       	ldbu r3,r0
     190:	13 f7       	stb r3,r1
     192:	11 a8       	addi r1,1
     194:	10 a8       	addi r0,1
     196:	00 f4       	ldbu r0,r0
     198:	10 f7       	stb r0,r1
     19a:	40 0b       	ldli r0,-76
     19c:	0d 0f       	ldli r13,-16
     19e:	dd f0       	ldw r13,r13
     1a0:	d0 e1       	add r0,r13
     1a2:	e0 a8       	addi r0,14
     1a4:	02 00       	ldli r2,0
     1a6:	02 f6       	sth r2,r0
     1a8:	20 a8       	addi r0,2
     1aa:	02 f6       	sth r2,r0
     1ac:	20 a8       	addi r0,2
     1ae:	02 f6       	sth r2,r0
     1b0:	20 a8       	addi r0,2
     1b2:	02 f6       	sth r2,r0
     1b4:	20 a8       	addi r0,2
     1b6:	02 f6       	sth r2,r0
     1b8:	20 a8       	addi r0,2
     1ba:	02 f6       	sth r2,r0
     1bc:	20 a8       	addi r0,2
     1be:	02 f6       	sth r2,r0
     1c0:	20 a8       	addi r0,2
     1c2:	02 f6       	sth r2,r0
     1c4:	20 a8       	addi r0,2
     1c6:	02 f6       	sth r2,r0
     1c8:	00 10       	ldhi r0,0
     1ca:	00 20       	ldliu r0,0x0
     1cc:	80 a1       	sli r0,0x8
     1ce:	00 20       	ldliu r0,0x0
     1d0:	80 a1       	sli r0,0x8
     1d2:	00 24       	ldliu r0,0x40
     1d4:	02 f4       	ldbu r2,r0
     1d6:	41 09       	ldli r1,-108
     1d8:	0d 0f       	ldli r13,-16
     1da:	dd f0       	ldw r13,r13
     1dc:	d1 e1       	add r1,r13
     1de:	12 f7       	stb r2,r1
     1e0:	41 09       	ldli r1,-108
     1e2:	0d 0f       	ldli r13,-16
     1e4:	dd f0       	ldw r13,r13
     1e6:	d1 e1       	add r1,r13
     1e8:	11 a8       	addi r1,1
     1ea:	10 a8       	addi r0,1
     1ec:	02 f4       	ldbu r2,r0
     1ee:	12 f7       	stb r2,r1
     1f0:	11 a8       	addi r1,1
     1f2:	10 a8       	addi r0,1
     1f4:	02 f4       	ldbu r2,r0
     1f6:	12 f7       	stb r2,r1
     1f8:	11 a8       	addi r1,1
     1fa:	10 a8       	addi r0,1
     1fc:	02 f4       	ldbu r2,r0
     1fe:	12 f7       	stb r2,r1
     200:	11 a8       	addi r1,1
     202:	10 a8       	addi r0,1
     204:	02 f4       	ldbu r2,r0
     206:	12 f7       	stb r2,r1
     208:	11 a8       	addi r1,1
     20a:	10 a8       	addi r0,1
     20c:	02 f4       	ldbu r2,r0
     20e:	12 f7       	stb r2,r1
     210:	11 a8       	addi r1,1
     212:	10 a8       	addi r0,1
     214:	02 f4       	ldbu r2,r0
     216:	12 f7       	stb r2,r1
     218:	11 a8       	addi r1,1
     21a:	10 a8       	addi r0,1
     21c:	02 f4       	ldbu r2,r0
     21e:	12 f7       	stb r2,r1
     220:	11 a8       	addi r1,1
     222:	10 a8       	addi r0,1
     224:	02 f4       	ldbu r2,r0
     226:	12 f7       	stb r2,r1
     228:	11 a8       	addi r1,1
     22a:	10 a8       	addi r0,1
     22c:	02 f4       	ldbu r2,r0
     22e:	12 f7       	stb r2,r1
     230:	11 a8       	addi r1,1
     232:	10 a8       	addi r0,1
     234:	02 f4       	ldbu r2,r0
     236:	12 f7       	stb r2,r1
     238:	11 a8       	addi r1,1
     23a:	10 a8       	addi r0,1
     23c:	02 f4       	ldbu r2,r0
     23e:	12 f7       	stb r2,r1
     240:	11 a8       	addi r1,1
     242:	10 a8       	addi r0,1
     244:	02 f4       	ldbu r2,r0
     246:	12 f7       	stb r2,r1
     248:	11 a8       	addi r1,1
     24a:	10 a8       	addi r0,1
     24c:	00 f4       	ldbu r0,r0
     24e:	10 f7       	stb r0,r1
     250:	40 09       	ldli r0,-108
     252:	0d 0f       	ldli r13,-16
     254:	dd f0       	ldw r13,r13
     256:	d0 e1       	add r0,r13
     258:	e0 a8       	addi r0,14
     25a:	01 00       	ldli r1,0
     25c:	01 f6       	sth r1,r0
     25e:	20 a8       	addi r0,2
     260:	01 f6       	sth r1,r0
     262:	20 a8       	addi r0,2
     264:	01 f6       	sth r1,r0
     266:	20 a8       	addi r0,2
     268:	01 f6       	sth r1,r0
     26a:	20 a8       	addi r0,2
     26c:	01 f6       	sth r1,r0
     26e:	20 a8       	addi r0,2
     270:	01 f6       	sth r1,r0
     272:	20 a8       	addi r0,2
     274:	01 f6       	sth r1,r0
     276:	20 a8       	addi r0,2
     278:	01 f6       	sth r1,r0
     27a:	20 a8       	addi r0,2
     27c:	01 f6       	sth r1,r0
     27e:	00 10       	ldhi r0,0
     280:	00 20       	ldliu r0,0x0
     282:	80 a1       	sli r0,0x8
     284:	00 20       	ldliu r0,0x0
     286:	80 a1       	sli r0,0x8
     288:	00 26       	ldliu r0,0x60
     28a:	01 f4       	ldbu r1,r0
     28c:	43 07       	ldli r3,116
     28e:	f3 1f       	ldhi r3,-1
     290:	0d 0f       	ldli r13,-16
     292:	dd f0       	ldw r13,r13
     294:	d3 e1       	add r3,r13
     296:	31 f7       	stb r1,r3
     298:	31 e0       	mov r1,r3
     29a:	11 a8       	addi r1,1
     29c:	10 a8       	addi r0,1
     29e:	03 f4       	ldbu r3,r0
     2a0:	13 f7       	stb r3,r1
     2a2:	11 a8       	addi r1,1
     2a4:	10 a8       	addi r0,1
     2a6:	03 f4       	ldbu r3,r0
     2a8:	13 f7       	stb r3,r1
     2aa:	11 a8       	addi r1,1
     2ac:	10 a8       	addi r0,1
     2ae:	03 f4       	ldbu r3,r0
     2b0:	13 f7       	stb r3,r1
     2b2:	11 a8       	addi r1,1
     2b4:	10 a8       	addi r0,1
     2b6:	03 f4       	ldbu r3,r0
     2b8:	13 f7       	stb r3,r1
     2ba:	11 a8       	addi r1,1
     2bc:	10 a8       	addi r0,1
     2be:	03 f4       	ldbu r3,r0
     2c0:	13 f7       	stb r3,r1
     2c2:	11 a8       	addi r1,1
     2c4:	10 a8       	addi r0,1
     2c6:	03 f4       	ldbu r3,r0
     2c8:	13 f7       	stb r3,r1
     2ca:	11 a8       	addi r1,1
     2cc:	10 a8       	addi r0,1
     2ce:	03 f4       	ldbu r3,r0
     2d0:	13 f7       	stb r3,r1
     2d2:	11 a8       	addi r1,1
     2d4:	10 a8       	addi r0,1
     2d6:	03 f4       	ldbu r3,r0
     2d8:	13 f7       	stb r3,r1
     2da:	11 a8       	addi r1,1
     2dc:	10 a8       	addi r0,1
     2de:	03 f4       	ldbu r3,r0
     2e0:	13 f7       	stb r3,r1
     2e2:	11 a8       	addi r1,1
     2e4:	10 a8       	addi r0,1
     2e6:	03 f4       	ldbu r3,r0
     2e8:	13 f7       	stb r3,r1
     2ea:	11 a8       	addi r1,1
     2ec:	10 a8       	addi r0,1
     2ee:	03 f4       	ldbu r3,r0
     2f0:	13 f7       	stb r3,r1
     2f2:	11 a8       	addi r1,1
     2f4:	10 a8       	addi r0,1
     2f6:	03 f4       	ldbu r3,r0
     2f8:	13 f7       	stb r3,r1
     2fa:	11 a8       	addi r1,1
     2fc:	10 a8       	addi r0,1
     2fe:	00 f4       	ldbu r0,r0
     300:	10 f7       	stb r0,r1
     302:	40 07       	ldli r0,116
     304:	f0 1f       	ldhi r0,-1
     306:	0d 0f       	ldli r13,-16
     308:	dd f0       	ldw r13,r13
     30a:	d0 e1       	add r0,r13
     30c:	e0 a8       	addi r0,14
     30e:	02 00       	ldli r2,0
     310:	02 f6       	sth r2,r0
     312:	20 a8       	addi r0,2
     314:	02 f6       	sth r2,r0
     316:	20 a8       	addi r0,2
     318:	02 f6       	sth r2,r0
     31a:	20 a8       	addi r0,2
     31c:	02 f6       	sth r2,r0
     31e:	20 a8       	addi r0,2
     320:	02 f6       	sth r2,r0
     322:	20 a8       	addi r0,2
     324:	02 f6       	sth r2,r0
     326:	20 a8       	addi r0,2
     328:	02 f6       	sth r2,r0
     32a:	20 a8       	addi r0,2
     32c:	02 f6       	sth r2,r0
     32e:	20 a8       	addi r0,2
     330:	02 f6       	sth r2,r0
     332:	20 10       	ldhi r0,2
     334:	a0 2f       	ldliu r0,0xfa
     336:	80 a1       	sli r0,0x8
     338:	00 2f       	ldliu r0,0xf0
     33a:	80 a1       	sli r0,0x8
     33c:	00 28       	ldliu r0,0x80
     33e:	d0 7b       	stfpy r0,-3
     340:	01 10       	ldhi r1,0
     342:	11 20       	ldliu r1,0x1
     344:	81 a1       	sli r1,0x8
     346:	21 2c       	ldliu r1,0xc2
     348:	81 a1       	sli r1,0x8
     34a:	01 20       	ldliu r1,0x0
     34c:	e1 7b       	stfpy r1,-2
     34e:	0d 0f       	ldli r13,-16
     350:	d0 f0       	ldw r0,r13
     352:	c0 ab       	addi r0,-4
     354:	01 f0       	ldw r1,r0
     356:	03 0c       	ldli r3,-64
     358:	31 e5       	and r1,r3
     35a:	72 00       	ldli r2,7
     35c:	21 e6       	or r1,r2
     35e:	51 a4       	bset r1,0x5
     360:	61 a6       	bclr r1,0x6
     362:	01 f5       	stw r1,r0
     364:	4d 0f       	ldli r13,-12
     366:	d3 f0       	ldw r3,r13
     368:	43 ab       	addi r3,-12
     36a:	4d 0f       	ldli r13,-12
     36c:	d3 f5       	stw r3,r13
     36e:	20 10       	ldhi r0,2
     370:	a0 2f       	ldliu r0,0xfa
     372:	80 a1       	sli r0,0x8
     374:	00 2f       	ldliu r0,0xf0
     376:	80 a1       	sli r0,0x8
     378:	00 28       	ldliu r0,0x80
     37a:	00 7c       	stfpz r0,0
     37c:	4d 0f       	ldli r13,-12
     37e:	d0 f0       	ldw r0,r13
     380:	40 a8       	addi r0,4
     382:	03 10       	ldhi r3,0
     384:	13 20       	ldliu r3,0x1
     386:	83 a1       	sli r3,0x8
     388:	23 2c       	ldliu r3,0xc2
     38a:	83 a1       	sli r3,0x8
     38c:	03 20       	ldliu r3,0x0
     38e:	03 f5       	stw r3,r0
     390:	40 a8       	addi r0,4
     392:	01 f5       	stw r1,r0
     394:	00 10       	ldhi r0,0
     396:	00 20       	ldliu r0,0x0
     398:	80 a1       	sli r0,0x8
     39a:	70 20       	ldliu r0,0x7
     39c:	80 a1       	sli r0,0x8
     39e:	c0 27       	ldliu r0,0x7c
     3a0:	00 ee       	jsr r0
     3a2:	4d 0f       	ldli r13,-12
     3a4:	d0 f0       	ldw r0,r13
     3a6:	c0 a8       	addi r0,12
     3a8:	4d 0f       	ldli r13,-12
     3aa:	d0 f5       	stw r0,r13
     3ac:	01 10       	ldhi r1,0
     3ae:	01 20       	ldliu r1,0x0
     3b0:	81 a1       	sli r1,0x8
     3b2:	01 20       	ldliu r1,0x0
     3b4:	81 a1       	sli r1,0x8
     3b6:	01 28       	ldliu r1,0x80
     3b8:	02 0e       	ldli r2,-32
     3ba:	e2 1f       	ldhi r2,-2
     3bc:	83 00       	ldli r3,8
     3be:	00 10       	ldhi r0,0
     3c0:	00 20       	ldliu r0,0x0
     3c2:	80 a1       	sli r0,0x8
     3c4:	20 20       	ldliu r0,0x2
     3c6:	80 a1       	sli r0,0x8
     3c8:	70 27       	ldliu r0,0x77
     3ca:	00 ee       	jsr r0
     3cc:	0c 10       	ldhi r12,0
     3ce:	0c 20       	ldliu r12,0x0
     3d0:	8c a1       	sli r12,0x8
     3d2:	7c 20       	ldliu r12,0x7
     3d4:	8c a1       	sli r12,0x8
     3d6:	2c 24       	ldliu r12,0x42
     3d8:	91 e0       	mov r1,r9
     3da:	0c ee       	jsr r12
     3dc:	0b 10       	ldhi r11,0
     3de:	0b 20       	ldliu r11,0x0
     3e0:	8b a1       	sli r11,0x8
     3e2:	8b 20       	ldliu r11,0x8
     3e4:	8b a1       	sli r11,0x8
     3e6:	5b 27       	ldliu r11,0x75
     3e8:	01 00       	ldli r1,0
     3ea:	92 e0       	mov r2,r9
     3ec:	03 e0       	mov r3,r0
     3ee:	0b ee       	jsr r11
     3f0:	01 10       	ldhi r1,0
     3f2:	01 20       	ldliu r1,0x0
     3f4:	81 a1       	sli r1,0x8
     3f6:	01 20       	ldliu r1,0x0
     3f8:	81 a1       	sli r1,0x8
     3fa:	01 28       	ldliu r1,0x80
     3fc:	02 00       	ldli r2,0
     3fe:	23 04       	ldli r3,66
     400:	00 10       	ldhi r0,0
     402:	00 20       	ldliu r0,0x0
     404:	80 a1       	sli r0,0x8
     406:	60 20       	ldliu r0,0x6
     408:	80 a1       	sli r0,0x8
     40a:	90 22       	ldliu r0,0x29
     40c:	00 ee       	jsr r0
     40e:	0a 00       	ldli r10,0
     410:	01 10       	ldhi r1,0
     412:	01 20       	ldliu r1,0x0
     414:	81 a1       	sli r1,0x8
     416:	21 20       	ldliu r1,0x2
     418:	81 a1       	sli r1,0x8
     41a:	21 24       	ldliu r1,0x42
     41c:	01 ee       	jsr r1
     41e:	09 e0       	mov r9,r0
     420:	0a b0       	cmp_eq r10,r0
     422:	13 9c       	jmpi_ct 19
     424:	30 b6       	btest r0,0x3
     426:	20 9c       	jmpi_ct 32
     428:	29 b6       	btest r9,0x2
     42a:	11 9c       	jmpi_ct 17
     42c:	19 b6       	btest r9,0x1
     42e:	0d 8c       	jmpi_cf 13
     430:	0d 0f       	ldli r13,-16
     432:	d1 f0       	ldw r1,r13
     434:	40 0b       	ldli r0,-76
     436:	01 e1       	add r1,r0
     438:	0c ee       	jsr r12
     43a:	01 00       	ldli r1,0
     43c:	0d 0f       	ldli r13,-16
     43e:	d2 f0       	ldw r2,r13
     440:	43 0b       	ldli r3,-76
     442:	32 e1       	add r2,r3
     444:	03 e0       	mov r3,r0
     446:	0b ee       	jsr r11
     448:	9a e0       	mov r10,r9
     44a:	e3 af       	jmpi -29
     44c:	0d 0f       	ldli r13,-16
     44e:	d1 f0       	ldw r1,r13
     450:	40 09       	ldli r0,-108
     452:	01 e1       	add r1,r0
     454:	0c ee       	jsr r12
     456:	01 00       	ldli r1,0
     458:	0d 0f       	ldli r13,-16
     45a:	d2 f0       	ldw r2,r13
     45c:	43 09       	ldli r3,-108
     45e:	32 e1       	add r2,r3
     460:	03 e0       	mov r3,r0
     462:	0b ee       	jsr r11
     464:	e4 af       	jmpi -28
     466:	0d 0f       	ldli r13,-16
     468:	d1 f0       	ldw r1,r13
     46a:	42 07       	ldli r2,116
     46c:	f2 1f       	ldhi r2,-1
     46e:	21 e1       	add r1,r2
     470:	0c ee       	jsr r12
     472:	01 00       	ldli r1,0
     474:	0d 0f       	ldli r13,-16
     476:	d2 f0       	ldw r2,r13
     478:	43 07       	ldli r3,116
     47a:	f3 1f       	ldhi r3,-1
     47c:	32 e1       	add r2,r3
     47e:	03 e0       	mov r3,r0
     480:	0b ee       	jsr r11
     482:	d3 af       	jmpi -45
     484:	40 08       	ldli r0,-124
     486:	e0 1f       	ldhi r0,-2
     488:	00 f0       	ldw r0,r0
     48a:	10 b6       	btest r0,0x1
     48c:	03 9c       	jmpi_ct 3
     48e:	21 00       	ldli r1,2
     490:	02 ac       	jmpi 2
     492:	01 00       	ldli r1,0
     494:	42 08       	ldli r2,-124
     496:	e2 1f       	ldhi r2,-2
     498:	20 f0       	ldw r0,r2
     49a:	20 b6       	btest r0,0x2
     49c:	21 84       	bset_cf r1,0x2
     49e:	20 f0       	ldw r0,r2
     4a0:	30 b6       	btest r0,0x3
     4a2:	31 84       	bset_cf r1,0x3
     4a4:	10 e0       	mov r0,r1
     4a6:	0e f8       	rts
     4a8:	40 08       	ldli r0,-124
     4aa:	e0 1f       	ldhi r0,-2
     4ac:	02 f0       	ldw r2,r0
     4ae:	13 00       	ldli r3,1
     4b0:	13 a0       	sl r3,r1
     4b2:	32 e9       	srai r2,0x3
     4b4:	00 10       	ldhi r0,0
     4b6:	30 20       	ldliu r0,0x3
     4b8:	80 a1       	sli r0,0x8
     4ba:	f0 2f       	ldliu r0,0xff
     4bc:	80 a1       	sli r0,0x8
     4be:	f0 2f       	ldliu r0,0xff
     4c0:	02 e5       	and r2,r0
     4c2:	32 e5       	and r2,r3
     4c4:	02 b8       	cmpi_eq r2,0
     4c6:	0f 9c       	jmpi_ct 15
     4c8:	00 10       	ldhi r0,0
     4ca:	00 20       	ldliu r0,0x0
     4cc:	80 a1       	sli r0,0x8
     4ce:	00 20       	ldliu r0,0x0
     4d0:	80 a1       	sli r0,0x8
     4d2:	80 28       	ldliu r0,0x88
     4d4:	00 f0       	ldw r0,r0
     4d6:	03 e5       	and r3,r0
     4d8:	32 b0       	cmp_eq r2,r3
     4da:	05 9c       	jmpi_ct 5
     4dc:	10 b8       	cmpi_eq r0,1
     4de:	05 8c       	jmpi_cf 5
     4e0:	20 00       	ldli r0,2
     4e2:	0e f8       	rts
     4e4:	00 00       	ldli r0,0
     4e6:	0e f8       	rts
     4e8:	10 00       	ldli r0,1
     4ea:	0e f8       	rts
     4ec:	0e f8       	rts
     4ee:	07 0f       	ldli r7,-16
     4f0:	7d f0       	ldw r13,r7
     4f2:	fd 5f       	stfpz_dec r13,-1
     4f4:	47 0f       	ldli r7,-12
     4f6:	7d f0       	ldw r13,r7
     4f8:	07 0f       	ldli r7,-16
     4fa:	7d f5       	stw r13,r7
     4fc:	47 0f       	ldli r7,-12
     4fe:	7d f0       	ldw r13,r7
     500:	4d ab       	addi r13,-12
     502:	7d f5       	stw r13,r7
     504:	0d 0f       	ldli r13,-16
     506:	d0 f0       	ldw r0,r13
     508:	c0 ab       	addi r0,-4
     50a:	04 e0       	mov r4,r0
     50c:	41 f5       	stw r1,r4
     50e:	0d 0f       	ldli r13,-16
     510:	d0 f0       	ldw r0,r13
     512:	80 ab       	addi r0,-8
     514:	01 e0       	mov r1,r0
     516:	12 f5       	stw r2,r1
     518:	0d 0f       	ldli r13,-16
     51a:	d0 f0       	ldw r0,r13
     51c:	70 ab       	addi r0,-9
     51e:	02 e0       	mov r2,r0
     520:	23 f7       	stb r3,r2
     522:	0d 0f       	ldli r13,-16
     524:	d0 f0       	ldw r0,r13
     526:	c0 ab       	addi r0,-4
     528:	04 e0       	mov r4,r0
     52a:	41 f0       	ldw r1,r4
     52c:	0d 0f       	ldli r13,-16
     52e:	d0 f0       	ldw r0,r13
     530:	80 ab       	addi r0,-8
     532:	02 e0       	mov r2,r0
     534:	20 f0       	ldw r0,r2
     536:	14 e0       	mov r4,r1
     538:	40 f5       	stw r0,r4
     53a:	0d 0f       	ldli r13,-16
     53c:	d0 f0       	ldw r0,r13
     53e:	c0 ab       	addi r0,-4
     540:	01 e0       	mov r1,r0
     542:	10 f0       	ldw r0,r1
     544:	01 e0       	mov r1,r0
     546:	41 a8       	addi r1,4
     548:	0d 0f       	ldli r13,-16
     54a:	d0 f0       	ldw r0,r13
     54c:	70 ab       	addi r0,-9
     54e:	02 e0       	mov r2,r0
     550:	20 f4       	ldbu r0,r2
     552:	14 e0       	mov r4,r1
     554:	40 f7       	stb r0,r4
     556:	47 0f       	ldli r7,-12
     558:	7d f0       	ldw r13,r7
     55a:	cd a8       	addi r13,12
     55c:	7d f5       	stw r13,r7
     55e:	07 0f       	ldli r7,-16
     560:	0d 4c       	ldfpz_inc r13,0
     562:	7d f5       	stw r13,r7
     564:	0e f8       	rts
     566:	07 0f       	ldli r7,-16
     568:	7d f0       	ldw r13,r7
     56a:	fd 5f       	stfpz_dec r13,-1
     56c:	47 0f       	ldli r7,-12
     56e:	7d f0       	ldw r13,r7
     570:	07 0f       	ldli r7,-16
     572:	7d f5       	stw r13,r7
     574:	47 0f       	ldli r7,-12
     576:	7d f0       	ldw r13,r7
     578:	cd ab       	addi r13,-4
     57a:	7d f5       	stw r13,r7
     57c:	0d 0f       	ldli r13,-16
     57e:	d0 f0       	ldw r0,r13
     580:	c0 ab       	addi r0,-4
     582:	02 e0       	mov r2,r0
     584:	21 f5       	stw r1,r2
     586:	47 0f       	ldli r7,-12
     588:	7d f0       	ldw r13,r7
     58a:	4d a8       	addi r13,4
     58c:	7d f5       	stw r13,r7
     58e:	07 0f       	ldli r7,-16
     590:	0d 4c       	ldfpz_inc r13,0
     592:	7d f5       	stw r13,r7
     594:	0e f8       	rts
     596:	07 0f       	ldli r7,-16
     598:	7d f0       	ldw r13,r7
     59a:	fd 5f       	stfpz_dec r13,-1
     59c:	47 0f       	ldli r7,-12
     59e:	7d f0       	ldw r13,r7
     5a0:	07 0f       	ldli r7,-16
     5a2:	7d f5       	stw r13,r7
     5a4:	47 0f       	ldli r7,-12
     5a6:	7d f0       	ldw r13,r7
     5a8:	4d ab       	addi r13,-12
     5aa:	7d f5       	stw r13,r7
     5ac:	0d 0f       	ldli r13,-16
     5ae:	d0 f0       	ldw r0,r13
     5b0:	80 ab       	addi r0,-8
     5b2:	03 e0       	mov r3,r0
     5b4:	31 f5       	stw r1,r3
     5b6:	0d 0f       	ldli r13,-16
     5b8:	d0 f0       	ldw r0,r13
     5ba:	60 ab       	addi r0,-10
     5bc:	01 e0       	mov r1,r0
     5be:	12 f6       	sth r2,r1
     5c0:	0d 0f       	ldli r13,-16
     5c2:	d0 f0       	ldw r0,r13
     5c4:	80 ab       	addi r0,-8
     5c6:	02 e0       	mov r2,r0
     5c8:	20 f0       	ldw r0,r2
     5ca:	03 e0       	mov r3,r0
     5cc:	30 f0       	ldw r0,r3
     5ce:	01 e0       	mov r1,r0
     5d0:	41 a8       	addi r1,4
     5d2:	0d 0f       	ldli r13,-16
     5d4:	d0 f0       	ldw r0,r13
     5d6:	c0 ab       	addi r0,-4
     5d8:	02 e0       	mov r2,r0
     5da:	21 f5       	stw r1,r2
     5dc:	0d 0f       	ldli r13,-16
     5de:	d0 f0       	ldw r0,r13
     5e0:	c0 ab       	addi r0,-4
     5e2:	03 e0       	mov r3,r0
     5e4:	31 f0       	ldw r1,r3
     5e6:	0d 0f       	ldli r13,-16
     5e8:	d0 f0       	ldw r0,r13
     5ea:	60 ab       	addi r0,-10
     5ec:	02 e0       	mov r2,r0
     5ee:	20 f2       	ldhu r0,r2
     5f0:	13 e0       	mov r3,r1
     5f2:	30 f6       	sth r0,r3
     5f4:	47 0f       	ldli r7,-12
     5f6:	7d f0       	ldw r13,r7
     5f8:	cd a8       	addi r13,12
     5fa:	7d f5       	stw r13,r7
     5fc:	07 0f       	ldli r7,-16
     5fe:	0d 4c       	ldfpz_inc r13,0
     600:	7d f5       	stw r13,r7
     602:	0e f8       	rts
     604:	07 0f       	ldli r7,-16
     606:	7d f0       	ldw r13,r7
     608:	fd 5f       	stfpz_dec r13,-1
     60a:	47 0f       	ldli r7,-12
     60c:	7d f0       	ldw r13,r7
     60e:	07 0f       	ldli r7,-16
     610:	7d f5       	stw r13,r7
     612:	47 0f       	ldli r7,-12
     614:	7d f0       	ldw r13,r7
     616:	4d ab       	addi r13,-12
     618:	7d f5       	stw r13,r7
     61a:	0d 0f       	ldli r13,-16
     61c:	d0 f0       	ldw r0,r13
     61e:	80 ab       	addi r0,-8
     620:	04 e0       	mov r4,r0
     622:	41 f5       	stw r1,r4
     624:	0d 0f       	ldli r13,-16
     626:	d0 f0       	ldw r0,r13
     628:	70 ab       	addi r0,-9
     62a:	01 e0       	mov r1,r0
     62c:	12 f7       	stb r2,r1
     62e:	0d 0f       	ldli r13,-16
     630:	d0 f0       	ldw r0,r13
     632:	60 ab       	addi r0,-10
     634:	02 e0       	mov r2,r0
     636:	23 f7       	stb r3,r2
     638:	0d 0f       	ldli r13,-16
     63a:	d0 f0       	ldw r0,r13
     63c:	80 ab       	addi r0,-8
     63e:	04 e0       	mov r4,r0
     640:	40 f0       	ldw r0,r4
     642:	01 e0       	mov r1,r0
     644:	10 f0       	ldw r0,r1
     646:	01 e0       	mov r1,r0
     648:	61 a8       	addi r1,6
     64a:	0d 0f       	ldli r13,-16
     64c:	d0 f0       	ldw r0,r13
     64e:	c0 ab       	addi r0,-4
     650:	02 e0       	mov r2,r0
     652:	21 f5       	stw r1,r2
     654:	0d 0f       	ldli r13,-16
     656:	d0 f0       	ldw r0,r13
     658:	70 ab       	addi r0,-9
     65a:	04 e0       	mov r4,r0
     65c:	40 f4       	ldbu r0,r4
     65e:	f1 03       	ldli r1,63
     660:	10 e5       	and r0,r1
     662:	60 a4       	bset r0,0x6
     664:	01 e0       	mov r1,r0
     666:	0d 0f       	ldli r13,-16
     668:	d0 f0       	ldw r0,r13
     66a:	c0 ab       	addi r0,-4
     66c:	02 e0       	mov r2,r0
     66e:	20 f0       	ldw r0,r2
     670:	04 e0       	mov r4,r0
     672:	41 f7       	stb r1,r4
     674:	0d 0f       	ldli r13,-16
     676:	d0 f0       	ldw r0,r13
     678:	80 ab       	addi r0,-8
     67a:	01 e0       	mov r1,r0
     67c:	10 f0       	ldw r0,r1
     67e:	02 e0       	mov r2,r0
     680:	20 f0       	ldw r0,r2
     682:	01 e0       	mov r1,r0
     684:	71 a8       	addi r1,7
     686:	0d 0f       	ldli r13,-16
     688:	d0 f0       	ldw r0,r13
     68a:	c0 ab       	addi r0,-4
     68c:	04 e0       	mov r4,r0
     68e:	41 f5       	stw r1,r4
     690:	0d 0f       	ldli r13,-16
     692:	d0 f0       	ldw r0,r13
     694:	c0 ab       	addi r0,-4
     696:	02 e0       	mov r2,r0
     698:	21 f0       	ldw r1,r2
     69a:	0d 0f       	ldli r13,-16
     69c:	d0 f0       	ldw r0,r13
     69e:	60 ab       	addi r0,-10
     6a0:	04 e0       	mov r4,r0
     6a2:	40 f4       	ldbu r0,r4
     6a4:	12 e0       	mov r2,r1
     6a6:	20 f7       	stb r0,r2
     6a8:	47 0f       	ldli r7,-12
     6aa:	7d f0       	ldw r13,r7
     6ac:	cd a8       	addi r13,12
     6ae:	7d f5       	stw r13,r7
     6b0:	07 0f       	ldli r7,-16
     6b2:	0d 4c       	ldfpz_inc r13,0
     6b4:	7d f5       	stw r13,r7
     6b6:	0e f8       	rts
     6b8:	fe 5f       	stfpz_dec r14,-1
     6ba:	07 0f       	ldli r7,-16
     6bc:	7d f0       	ldw r13,r7
     6be:	fd 5f       	stfpz_dec r13,-1
     6c0:	47 0f       	ldli r7,-12
     6c2:	7d f0       	ldw r13,r7
     6c4:	07 0f       	ldli r7,-16
     6c6:	7d f5       	stw r13,r7
     6c8:	47 0f       	ldli r7,-12
     6ca:	7d f0       	ldw r13,r7
     6cc:	0d ab       	addi r13,-16
     6ce:	7d f5       	stw r13,r7
     6d0:	0d 0f       	ldli r13,-16
     6d2:	d0 f0       	ldw r0,r13
     6d4:	80 ab       	addi r0,-8
     6d6:	04 e0       	mov r4,r0
     6d8:	41 f5       	stw r1,r4
     6da:	0d 0f       	ldli r13,-16
     6dc:	d0 f0       	ldw r0,r13
     6de:	70 ab       	addi r0,-9
     6e0:	01 e0       	mov r1,r0
     6e2:	12 f7       	stb r2,r1
     6e4:	0d 0f       	ldli r13,-16
     6e6:	d0 f0       	ldw r0,r13
     6e8:	60 ab       	addi r0,-10
     6ea:	02 e0       	mov r2,r0
     6ec:	23 f7       	stb r3,r2
     6ee:	0d 0f       	ldli r13,-16
     6f0:	d1 f0       	ldw r1,r13
     6f2:	c1 ab       	addi r1,-4
     6f4:	00 00       	ldli r0,0
     6f6:	14 e0       	mov r4,r1
     6f8:	40 f5       	stw r0,r4
     6fa:	0d 0f       	ldli r13,-16
     6fc:	d1 f0       	ldw r1,r13
     6fe:	c1 ab       	addi r1,-4
     700:	00 00       	ldli r0,0
     702:	12 e0       	mov r2,r1
     704:	20 f5       	stw r0,r2
     706:	51 ac       	jmpi 81
     708:	0d 0f       	ldli r13,-16
     70a:	d0 f0       	ldw r0,r13
     70c:	c0 ab       	addi r0,-4
     70e:	04 e0       	mov r4,r0
     710:	40 f0       	ldw r0,r4
     712:	01 e0       	mov r1,r0
     714:	0d 0f       	ldli r13,-16
     716:	d0 f0       	ldw r0,r13
     718:	70 ab       	addi r0,-9
     71a:	02 e0       	mov r2,r0
     71c:	20 f4       	ldbu r0,r2
     71e:	10 e1       	add r0,r1
     720:	04 e0       	mov r4,r0
     722:	0d 0f       	ldli r13,-16
     724:	d0 f0       	ldw r0,r13
     726:	60 ab       	addi r0,-10
     728:	01 e0       	mov r1,r0
     72a:	10 f4       	ldbu r0,r1
     72c:	82 01       	ldli r2,24
     72e:	20 a0       	sl r0,r2
     730:	81 01       	ldli r1,24
     732:	10 a2       	sr r0,r1
     734:	a2 00       	ldli r2,10
     736:	03 10       	ldhi r3,0
     738:	03 20       	ldliu r3,0x0
     73a:	83 a1       	sli r3,0x8
     73c:	73 20       	ldliu r3,0x7
     73e:	83 a1       	sli r3,0x8
     740:	23 22       	ldliu r3,0x22
     742:	01 e0       	mov r1,r0
     744:	03 ee       	jsr r3
     746:	03 e0       	mov r3,r0
     748:	0d 0f       	ldli r13,-16
     74a:	d0 f0       	ldw r0,r13
     74c:	80 ab       	addi r0,-8
     74e:	02 e0       	mov r2,r0
     750:	20 f0       	ldw r0,r2
     752:	01 e0       	mov r1,r0
     754:	42 e0       	mov r2,r4
     756:	00 10       	ldhi r0,0
     758:	00 20       	ldliu r0,0x0
     75a:	80 a1       	sli r0,0x8
     75c:	30 20       	ldliu r0,0x3
     75e:	80 a1       	sli r0,0x8
     760:	20 20       	ldliu r0,0x2
     762:	00 ee       	jsr r0
     764:	0d 0f       	ldli r13,-16
     766:	d4 f0       	ldw r4,r13
     768:	64 ab       	addi r4,-10
     76a:	0d 0f       	ldli r13,-16
     76c:	d0 f0       	ldw r0,r13
     76e:	60 ab       	addi r0,-10
     770:	01 e0       	mov r1,r0
     772:	10 f4       	ldbu r0,r1
     774:	82 01       	ldli r2,24
     776:	20 a0       	sl r0,r2
     778:	81 01       	ldli r1,24
     77a:	10 a2       	sr r0,r1
     77c:	a2 00       	ldli r2,10
     77e:	03 10       	ldhi r3,0
     780:	03 20       	ldliu r3,0x0
     782:	83 a1       	sli r3,0x8
     784:	73 20       	ldliu r3,0x7
     786:	83 a1       	sli r3,0x8
     788:	f3 20       	ldliu r3,0xf
     78a:	01 e0       	mov r1,r0
     78c:	03 ee       	jsr r3
     78e:	42 e0       	mov r2,r4
     790:	20 f7       	stb r0,r2
     792:	0d 0f       	ldli r13,-16
     794:	d1 f0       	ldw r1,r13
     796:	c1 ab       	addi r1,-4
     798:	0d 0f       	ldli r13,-16
     79a:	d0 f0       	ldw r0,r13
     79c:	c0 ab       	addi r0,-4
     79e:	04 e0       	mov r4,r0
     7a0:	40 f0       	ldw r0,r4
     7a2:	10 a8       	addi r0,1
     7a4:	12 e0       	mov r2,r1
     7a6:	20 f5       	stw r0,r2
     7a8:	0d 0f       	ldli r13,-16
     7aa:	d0 f0       	ldw r0,r13
     7ac:	80 ab       	addi r0,-8
     7ae:	04 e0       	mov r4,r0
     7b0:	40 f0       	ldw r0,r4
     7b2:	40 a8       	addi r0,4
     7b4:	01 e0       	mov r1,r0
     7b6:	10 f4       	ldbu r0,r1
     7b8:	82 01       	ldli r2,24
     7ba:	20 a0       	sl r0,r2
     7bc:	84 01       	ldli r4,24
     7be:	40 a2       	sr r0,r4
     7c0:	3d 00       	ldli r13,3
     7c2:	d0 b4       	cmpu_gt r0,r13
     7c4:	12 9c       	jmpi_ct 18
     7c6:	0d 0f       	ldli r13,-16
     7c8:	d0 f0       	ldw r0,r13
     7ca:	80 ab       	addi r0,-8
     7cc:	01 e0       	mov r1,r0
     7ce:	10 f0       	ldw r0,r1
     7d0:	40 a8       	addi r0,4
     7d2:	02 e0       	mov r2,r0
     7d4:	20 f4       	ldbu r0,r2
     7d6:	04 e0       	mov r4,r0
     7d8:	81 01       	ldli r1,24
     7da:	14 a0       	sl r4,r1
     7dc:	c4 7b       	stfpy r4,-4
     7de:	c2 6b       	ldfpy r2,-4
     7e0:	84 01       	ldli r4,24
     7e2:	42 a2       	sr r2,r4
     7e4:	c2 7b       	stfpy r2,-4
     7e6:	03 ac       	jmpi 3
     7e8:	30 00       	ldli r0,3
     7ea:	c0 7b       	stfpy r0,-4
     7ec:	0d 0f       	ldli r13,-16
     7ee:	d0 f0       	ldw r0,r13
     7f0:	c0 ab       	addi r0,-4
     7f2:	01 e0       	mov r1,r0
     7f4:	10 f0       	ldw r0,r1
     7f6:	c2 6b       	ldfpy r2,-4
     7f8:	02 b2       	cmp_gt r2,r0
     7fa:	87 9f       	jmpi_ct -121
     7fc:	47 0f       	ldli r7,-12
     7fe:	7d f0       	ldw r13,r7
     800:	06 01       	ldli r6,16
     802:	6d e1       	add r13,r6
     804:	7d f5       	stw r13,r7
     806:	07 0f       	ldli r7,-16
     808:	0d 4c       	ldfpz_inc r13,0
     80a:	7d f5       	stw r13,r7
     80c:	0e 4c       	ldfpz_inc r14,0
     80e:	0e f8       	rts
     810:	fe 5f       	stfpz_dec r14,-1
     812:	07 0f       	ldli r7,-16
     814:	7d f0       	ldw r13,r7
     816:	fd 5f       	stfpz_dec r13,-1
     818:	47 0f       	ldli r7,-12
     81a:	7d f0       	ldw r13,r7
     81c:	07 0f       	ldli r7,-16
     81e:	7d f5       	stw r13,r7
     820:	47 0f       	ldli r7,-12
     822:	7d f0       	ldw r13,r7
     824:	0d ab       	addi r13,-16
     826:	7d f5       	stw r13,r7
     828:	0d 0f       	ldli r13,-16
     82a:	d0 f0       	ldw r0,r13
     82c:	80 ab       	addi r0,-8
     82e:	04 e0       	mov r4,r0
     830:	41 f5       	stw r1,r4
     832:	0d 0f       	ldli r13,-16
     834:	d0 f0       	ldw r0,r13
     836:	70 ab       	addi r0,-9
     838:	01 e0       	mov r1,r0
     83a:	12 f7       	stb r2,r1
     83c:	0d 0f       	ldli r13,-16
     83e:	d0 f0       	ldw r0,r13
     840:	40 ab       	addi r0,-12
     842:	02 e0       	mov r2,r0
     844:	23 f6       	sth r3,r2
     846:	0d 0f       	ldli r13,-16
     848:	d1 f0       	ldw r1,r13
     84a:	c1 ab       	addi r1,-4
     84c:	00 00       	ldli r0,0
     84e:	14 e0       	mov r4,r1
     850:	40 f5       	stw r0,r4
     852:	0d 0f       	ldli r13,-16
     854:	d1 f0       	ldw r1,r13
     856:	c1 ab       	addi r1,-4
     858:	00 00       	ldli r0,0
     85a:	12 e0       	mov r2,r1
     85c:	20 f5       	stw r0,r2
     85e:	51 ac       	jmpi 81
     860:	0d 0f       	ldli r13,-16
     862:	d0 f0       	ldw r0,r13
     864:	c0 ab       	addi r0,-4
     866:	04 e0       	mov r4,r0
     868:	40 f0       	ldw r0,r4
     86a:	01 e0       	mov r1,r0
     86c:	0d 0f       	ldli r13,-16
     86e:	d0 f0       	ldw r0,r13
     870:	70 ab       	addi r0,-9
     872:	02 e0       	mov r2,r0
     874:	20 f4       	ldbu r0,r2
     876:	10 e1       	add r0,r1
     878:	04 e0       	mov r4,r0
     87a:	0d 0f       	ldli r13,-16
     87c:	d0 f0       	ldw r0,r13
     87e:	40 ab       	addi r0,-12
     880:	01 e0       	mov r1,r0
     882:	10 f2       	ldhu r0,r1
     884:	02 01       	ldli r2,16
     886:	20 a0       	sl r0,r2
     888:	01 01       	ldli r1,16
     88a:	10 a2       	sr r0,r1
     88c:	a2 00       	ldli r2,10
     88e:	03 10       	ldhi r3,0
     890:	03 20       	ldliu r3,0x0
     892:	83 a1       	sli r3,0x8
     894:	73 20       	ldliu r3,0x7
     896:	83 a1       	sli r3,0x8
     898:	23 22       	ldliu r3,0x22
     89a:	01 e0       	mov r1,r0
     89c:	03 ee       	jsr r3
     89e:	03 e0       	mov r3,r0
     8a0:	0d 0f       	ldli r13,-16
     8a2:	d0 f0       	ldw r0,r13
     8a4:	80 ab       	addi r0,-8
     8a6:	02 e0       	mov r2,r0
     8a8:	20 f0       	ldw r0,r2
     8aa:	01 e0       	mov r1,r0
     8ac:	42 e0       	mov r2,r4
     8ae:	00 10       	ldhi r0,0
     8b0:	00 20       	ldliu r0,0x0
     8b2:	80 a1       	sli r0,0x8
     8b4:	30 20       	ldliu r0,0x3
     8b6:	80 a1       	sli r0,0x8
     8b8:	20 20       	ldliu r0,0x2
     8ba:	00 ee       	jsr r0
     8bc:	0d 0f       	ldli r13,-16
     8be:	d4 f0       	ldw r4,r13
     8c0:	44 ab       	addi r4,-12
     8c2:	0d 0f       	ldli r13,-16
     8c4:	d0 f0       	ldw r0,r13
     8c6:	40 ab       	addi r0,-12
     8c8:	01 e0       	mov r1,r0
     8ca:	10 f2       	ldhu r0,r1
     8cc:	02 01       	ldli r2,16
     8ce:	20 a0       	sl r0,r2
     8d0:	01 01       	ldli r1,16
     8d2:	10 a2       	sr r0,r1
     8d4:	a2 00       	ldli r2,10
     8d6:	03 10       	ldhi r3,0
     8d8:	03 20       	ldliu r3,0x0
     8da:	83 a1       	sli r3,0x8
     8dc:	73 20       	ldliu r3,0x7
     8de:	83 a1       	sli r3,0x8
     8e0:	f3 20       	ldliu r3,0xf
     8e2:	01 e0       	mov r1,r0
     8e4:	03 ee       	jsr r3
     8e6:	42 e0       	mov r2,r4
     8e8:	20 f6       	sth r0,r2
     8ea:	0d 0f       	ldli r13,-16
     8ec:	d1 f0       	ldw r1,r13
     8ee:	c1 ab       	addi r1,-4
     8f0:	0d 0f       	ldli r13,-16
     8f2:	d0 f0       	ldw r0,r13
     8f4:	c0 ab       	addi r0,-4
     8f6:	04 e0       	mov r4,r0
     8f8:	40 f0       	ldw r0,r4
     8fa:	10 a8       	addi r0,1
     8fc:	12 e0       	mov r2,r1
     8fe:	20 f5       	stw r0,r2
     900:	0d 0f       	ldli r13,-16
     902:	d0 f0       	ldw r0,r13
     904:	80 ab       	addi r0,-8
     906:	04 e0       	mov r4,r0
     908:	40 f0       	ldw r0,r4
     90a:	40 a8       	addi r0,4
     90c:	01 e0       	mov r1,r0
     90e:	10 f4       	ldbu r0,r1
     910:	82 01       	ldli r2,24
     912:	20 a0       	sl r0,r2
     914:	84 01       	ldli r4,24
     916:	40 a2       	sr r0,r4
     918:	5d 00       	ldli r13,5
     91a:	d0 b4       	cmpu_gt r0,r13
     91c:	12 9c       	jmpi_ct 18
     91e:	0d 0f       	ldli r13,-16
     920:	d0 f0       	ldw r0,r13
     922:	80 ab       	addi r0,-8
     924:	01 e0       	mov r1,r0
     926:	10 f0       	ldw r0,r1
     928:	40 a8       	addi r0,4
     92a:	02 e0       	mov r2,r0
     92c:	20 f4       	ldbu r0,r2
     92e:	04 e0       	mov r4,r0
     930:	81 01       	ldli r1,24
     932:	14 a0       	sl r4,r1
     934:	c4 7b       	stfpy r4,-4
     936:	c2 6b       	ldfpy r2,-4
     938:	84 01       	ldli r4,24
     93a:	42 a2       	sr r2,r4
     93c:	c2 7b       	stfpy r2,-4
     93e:	03 ac       	jmpi 3
     940:	50 00       	ldli r0,5
     942:	c0 7b       	stfpy r0,-4
     944:	0d 0f       	ldli r13,-16
     946:	d0 f0       	ldw r0,r13
     948:	c0 ab       	addi r0,-4
     94a:	01 e0       	mov r1,r0
     94c:	10 f0       	ldw r0,r1
     94e:	c2 6b       	ldfpy r2,-4
     950:	02 b2       	cmp_gt r2,r0
     952:	87 9f       	jmpi_ct -121
     954:	47 0f       	ldli r7,-12
     956:	7d f0       	ldw r13,r7
     958:	06 01       	ldli r6,16
     95a:	6d e1       	add r13,r6
     95c:	7d f5       	stw r13,r7
     95e:	07 0f       	ldli r7,-16
     960:	0d 4c       	ldfpz_inc r13,0
     962:	7d f5       	stw r13,r7
     964:	0e 4c       	ldfpz_inc r14,0
     966:	0e f8       	rts
     968:	fe 5f       	stfpz_dec r14,-1
     96a:	07 0f       	ldli r7,-16
     96c:	7d f0       	ldw r13,r7
     96e:	fd 5f       	stfpz_dec r13,-1
     970:	47 0f       	ldli r7,-12
     972:	7d f0       	ldw r13,r7
     974:	07 0f       	ldli r7,-16
     976:	7d f5       	stw r13,r7
     978:	47 0f       	ldli r7,-12
     97a:	7d f0       	ldw r13,r7
     97c:	c6 0e       	ldli r6,-20
     97e:	6d e1       	add r13,r6
     980:	7d f5       	stw r13,r7
     982:	0d 0f       	ldli r13,-16
     984:	d0 f0       	ldw r0,r13
     986:	80 ab       	addi r0,-8
     988:	04 e0       	mov r4,r0
     98a:	41 f5       	stw r1,r4
     98c:	0d 0f       	ldli r13,-16
     98e:	d0 f0       	ldw r0,r13
     990:	70 ab       	addi r0,-9
     992:	01 e0       	mov r1,r0
     994:	12 f7       	stb r2,r1
     996:	0d 0f       	ldli r13,-16
     998:	d0 f0       	ldw r0,r13
     99a:	00 ab       	addi r0,-16
     99c:	02 e0       	mov r2,r0
     99e:	23 f5       	stw r3,r2
     9a0:	0d 0f       	ldli r13,-16
     9a2:	d1 f0       	ldw r1,r13
     9a4:	c1 ab       	addi r1,-4
     9a6:	00 00       	ldli r0,0
     9a8:	14 e0       	mov r4,r1
     9aa:	40 f5       	stw r0,r4
     9ac:	0d 0f       	ldli r13,-16
     9ae:	d1 f0       	ldw r1,r13
     9b0:	c1 ab       	addi r1,-4
     9b2:	00 00       	ldli r0,0
     9b4:	12 e0       	mov r2,r1
     9b6:	20 f5       	stw r0,r2
     9b8:	49 ac       	jmpi 73
     9ba:	0d 0f       	ldli r13,-16
     9bc:	d0 f0       	ldw r0,r13
     9be:	c0 ab       	addi r0,-4
     9c0:	04 e0       	mov r4,r0
     9c2:	40 f0       	ldw r0,r4
     9c4:	01 e0       	mov r1,r0
     9c6:	0d 0f       	ldli r13,-16
     9c8:	d0 f0       	ldw r0,r13
     9ca:	70 ab       	addi r0,-9
     9cc:	02 e0       	mov r2,r0
     9ce:	20 f4       	ldbu r0,r2
     9d0:	10 e1       	add r0,r1
     9d2:	04 e0       	mov r4,r0
     9d4:	0d 0f       	ldli r13,-16
     9d6:	d0 f0       	ldw r0,r13
     9d8:	00 ab       	addi r0,-16
     9da:	01 e0       	mov r1,r0
     9dc:	10 f0       	ldw r0,r1
     9de:	a2 00       	ldli r2,10
     9e0:	03 10       	ldhi r3,0
     9e2:	03 20       	ldliu r3,0x0
     9e4:	83 a1       	sli r3,0x8
     9e6:	73 20       	ldliu r3,0x7
     9e8:	83 a1       	sli r3,0x8
     9ea:	23 22       	ldliu r3,0x22
     9ec:	01 e0       	mov r1,r0
     9ee:	03 ee       	jsr r3
     9f0:	03 e0       	mov r3,r0
     9f2:	0d 0f       	ldli r13,-16
     9f4:	d0 f0       	ldw r0,r13
     9f6:	80 ab       	addi r0,-8
     9f8:	02 e0       	mov r2,r0
     9fa:	20 f0       	ldw r0,r2
     9fc:	01 e0       	mov r1,r0
     9fe:	42 e0       	mov r2,r4
     a00:	00 10       	ldhi r0,0
     a02:	00 20       	ldliu r0,0x0
     a04:	80 a1       	sli r0,0x8
     a06:	30 20       	ldliu r0,0x3
     a08:	80 a1       	sli r0,0x8
     a0a:	20 20       	ldliu r0,0x2
     a0c:	00 ee       	jsr r0
     a0e:	0d 0f       	ldli r13,-16
     a10:	d4 f0       	ldw r4,r13
     a12:	04 ab       	addi r4,-16
     a14:	0d 0f       	ldli r13,-16
     a16:	d0 f0       	ldw r0,r13
     a18:	00 ab       	addi r0,-16
     a1a:	01 e0       	mov r1,r0
     a1c:	10 f0       	ldw r0,r1
     a1e:	a2 00       	ldli r2,10
     a20:	03 10       	ldhi r3,0
     a22:	03 20       	ldliu r3,0x0
     a24:	83 a1       	sli r3,0x8
     a26:	73 20       	ldliu r3,0x7
     a28:	83 a1       	sli r3,0x8
     a2a:	f3 20       	ldliu r3,0xf
     a2c:	01 e0       	mov r1,r0
     a2e:	03 ee       	jsr r3
     a30:	42 e0       	mov r2,r4
     a32:	20 f5       	stw r0,r2
     a34:	0d 0f       	ldli r13,-16
     a36:	d1 f0       	ldw r1,r13
     a38:	c1 ab       	addi r1,-4
     a3a:	0d 0f       	ldli r13,-16
     a3c:	d0 f0       	ldw r0,r13
     a3e:	c0 ab       	addi r0,-4
     a40:	04 e0       	mov r4,r0
     a42:	40 f0       	ldw r0,r4
     a44:	10 a8       	addi r0,1
     a46:	12 e0       	mov r2,r1
     a48:	20 f5       	stw r0,r2
     a4a:	0d 0f       	ldli r13,-16
     a4c:	d0 f0       	ldw r0,r13
     a4e:	80 ab       	addi r0,-8
     a50:	04 e0       	mov r4,r0
     a52:	40 f0       	ldw r0,r4
     a54:	40 a8       	addi r0,4
     a56:	01 e0       	mov r1,r0
     a58:	10 f4       	ldbu r0,r1
     a5a:	82 01       	ldli r2,24
     a5c:	20 a0       	sl r0,r2
     a5e:	84 01       	ldli r4,24
     a60:	40 a2       	sr r0,r4
     a62:	ad 00       	ldli r13,10
     a64:	d0 b4       	cmpu_gt r0,r13
     a66:	12 9c       	jmpi_ct 18
     a68:	0d 0f       	ldli r13,-16
     a6a:	d0 f0       	ldw r0,r13
     a6c:	80 ab       	addi r0,-8
     a6e:	01 e0       	mov r1,r0
     a70:	10 f0       	ldw r0,r1
     a72:	40 a8       	addi r0,4
     a74:	02 e0       	mov r2,r0
     a76:	20 f4       	ldbu r0,r2
     a78:	04 e0       	mov r4,r0
     a7a:	81 01       	ldli r1,24
     a7c:	14 a0       	sl r4,r1
     a7e:	b4 7b       	stfpy r4,-5
     a80:	b2 6b       	ldfpy r2,-5
     a82:	84 01       	ldli r4,24
     a84:	42 a2       	sr r2,r4
     a86:	b2 7b       	stfpy r2,-5
     a88:	03 ac       	jmpi 3
     a8a:	a0 00       	ldli r0,10
     a8c:	b0 7b       	stfpy r0,-5
     a8e:	0d 0f       	ldli r13,-16
     a90:	d0 f0       	ldw r0,r13
     a92:	c0 ab       	addi r0,-4
     a94:	01 e0       	mov r1,r0
     a96:	10 f0       	ldw r0,r1
     a98:	b2 6b       	ldfpy r2,-5
     a9a:	02 b2       	cmp_gt r2,r0
     a9c:	8f 9f       	jmpi_ct -113
     a9e:	47 0f       	ldli r7,-12
     aa0:	7d f0       	ldw r13,r7
     aa2:	46 01       	ldli r6,20
     aa4:	6d e1       	add r13,r6
     aa6:	7d f5       	stw r13,r7
     aa8:	07 0f       	ldli r7,-16
     aaa:	0d 4c       	ldfpz_inc r13,0
     aac:	7d f5       	stw r13,r7
     aae:	0e 4c       	ldfpz_inc r14,0
     ab0:	0e f8       	rts
     ab2:	fe 5f       	stfpz_dec r14,-1
     ab4:	07 0f       	ldli r7,-16
     ab6:	7d f0       	ldw r13,r7
     ab8:	fd 5f       	stfpz_dec r13,-1
     aba:	47 0f       	ldli r7,-12
     abc:	7d f0       	ldw r13,r7
     abe:	07 0f       	ldli r7,-16
     ac0:	7d f5       	stw r13,r7
     ac2:	47 0f       	ldli r7,-12
     ac4:	7d f0       	ldw r13,r7
     ac6:	8d ab       	addi r13,-8
     ac8:	7d f5       	stw r13,r7
     aca:	0d 0f       	ldli r13,-16
     acc:	d0 f0       	ldw r0,r13
     ace:	c0 ab       	addi r0,-4
     ad0:	04 e0       	mov r4,r0
     ad2:	41 f5       	stw r1,r4
     ad4:	0d 0f       	ldli r13,-16
     ad6:	d0 f0       	ldw r0,r13
     ad8:	b0 ab       	addi r0,-5
     ada:	01 e0       	mov r1,r0
     adc:	12 f7       	stb r2,r1
     ade:	0d 0f       	ldli r13,-16
     ae0:	d0 f0       	ldw r0,r13
     ae2:	a0 ab       	addi r0,-6
     ae4:	02 e0       	mov r2,r0
     ae6:	23 f7       	stb r3,r2
     ae8:	0d 0f       	ldli r13,-16
     aea:	d0 f0       	ldw r0,r13
     aec:	a0 ab       	addi r0,-6
     aee:	04 e0       	mov r4,r0
     af0:	40 f4       	ldbu r0,r4
     af2:	f1 00       	ldli r1,15
     af4:	10 e5       	and r0,r1
     af6:	03 e0       	mov r3,r0
     af8:	0d 0f       	ldli r13,-16
     afa:	d0 f0       	ldw r0,r13
     afc:	c0 ab       	addi r0,-4
     afe:	02 e0       	mov r2,r0
     b00:	21 f0       	ldw r1,r2
     b02:	0d 0f       	ldli r13,-16
     b04:	d0 f0       	ldw r0,r13
     b06:	b0 ab       	addi r0,-5
     b08:	04 e0       	mov r4,r0
     b0a:	40 f4       	ldbu r0,r4
     b0c:	02 e0       	mov r2,r0
     b0e:	00 10       	ldhi r0,0
     b10:	00 20       	ldliu r0,0x0
     b12:	80 a1       	sli r0,0x8
     b14:	30 20       	ldliu r0,0x3
     b16:	80 a1       	sli r0,0x8
     b18:	20 20       	ldliu r0,0x2
     b1a:	00 ee       	jsr r0
     b1c:	0d 0f       	ldli r13,-16
     b1e:	d0 f0       	ldw r0,r13
     b20:	b0 ab       	addi r0,-5
     b22:	01 e0       	mov r1,r0
     b24:	10 f4       	ldbu r0,r1
     b26:	10 a8       	addi r0,1
     b28:	02 e0       	mov r2,r0
     b2a:	0d 0f       	ldli r13,-16
     b2c:	d0 f0       	ldw r0,r13
     b2e:	a0 ab       	addi r0,-6
     b30:	04 e0       	mov r4,r0
     b32:	40 f4       	ldbu r0,r4
     b34:	81 01       	ldli r1,24
     b36:	10 a0       	sl r0,r1
     b38:	84 01       	ldli r4,24
     b3a:	40 a2       	sr r0,r4
     b3c:	40 a3       	sri r0,0x4
     b3e:	03 e0       	mov r3,r0
     b40:	0d 0f       	ldli r13,-16
     b42:	d0 f0       	ldw r0,r13
     b44:	c0 ab       	addi r0,-4
     b46:	01 e0       	mov r1,r0
     b48:	10 f0       	ldw r0,r1
     b4a:	01 e0       	mov r1,r0
     b4c:	00 10       	ldhi r0,0
     b4e:	00 20       	ldliu r0,0x0
     b50:	80 a1       	sli r0,0x8
     b52:	30 20       	ldliu r0,0x3
     b54:	80 a1       	sli r0,0x8
     b56:	20 20       	ldliu r0,0x2
     b58:	00 ee       	jsr r0
     b5a:	47 0f       	ldli r7,-12
     b5c:	7d f0       	ldw r13,r7
     b5e:	8d a8       	addi r13,8
     b60:	7d f5       	stw r13,r7
     b62:	07 0f       	ldli r7,-16
     b64:	0d 4c       	ldfpz_inc r13,0
     b66:	7d f5       	stw r13,r7
     b68:	0e 4c       	ldfpz_inc r14,0
     b6a:	0e f8       	rts
     b6c:	fe 5f       	stfpz_dec r14,-1
     b6e:	07 0f       	ldli r7,-16
     b70:	7d f0       	ldw r13,r7
     b72:	fd 5f       	stfpz_dec r13,-1
     b74:	47 0f       	ldli r7,-12
     b76:	7d f0       	ldw r13,r7
     b78:	07 0f       	ldli r7,-16
     b7a:	7d f5       	stw r13,r7
     b7c:	47 0f       	ldli r7,-12
     b7e:	7d f0       	ldw r13,r7
     b80:	4d ab       	addi r13,-12
     b82:	7d f5       	stw r13,r7
     b84:	0d 0f       	ldli r13,-16
     b86:	d0 f0       	ldw r0,r13
     b88:	80 ab       	addi r0,-8
     b8a:	04 e0       	mov r4,r0
     b8c:	41 f5       	stw r1,r4
     b8e:	0d 0f       	ldli r13,-16
     b90:	d0 f0       	ldw r0,r13
     b92:	70 ab       	addi r0,-9
     b94:	01 e0       	mov r1,r0
     b96:	12 f7       	stb r2,r1
     b98:	0d 0f       	ldli r13,-16
     b9a:	d0 f0       	ldw r0,r13
     b9c:	40 ab       	addi r0,-12
     b9e:	02 e0       	mov r2,r0
     ba0:	23 f6       	sth r3,r2
     ba2:	0d 0f       	ldli r13,-16
     ba4:	d1 f0       	ldw r1,r13
     ba6:	c1 ab       	addi r1,-4
     ba8:	00 00       	ldli r0,0
     baa:	13 e0       	mov r3,r1
     bac:	30 f5       	stw r0,r3
     bae:	0d 0f       	ldli r13,-16
     bb0:	d1 f0       	ldw r1,r13
     bb2:	c1 ab       	addi r1,-4
     bb4:	00 00       	ldli r0,0
     bb6:	14 e0       	mov r4,r1
     bb8:	40 f5       	stw r0,r4
     bba:	3c ac       	jmpi 60
     bbc:	0d 0f       	ldli r13,-16
     bbe:	d0 f0       	ldw r0,r13
     bc0:	c0 ab       	addi r0,-4
     bc2:	01 e0       	mov r1,r0
     bc4:	10 f0       	ldw r0,r1
     bc6:	01 e0       	mov r1,r0
     bc8:	0d 0f       	ldli r13,-16
     bca:	d0 f0       	ldw r0,r13
     bcc:	70 ab       	addi r0,-9
     bce:	02 e0       	mov r2,r0
     bd0:	20 f4       	ldbu r0,r2
     bd2:	10 e1       	add r0,r1
     bd4:	02 e0       	mov r2,r0
     bd6:	0d 0f       	ldli r13,-16
     bd8:	d0 f0       	ldw r0,r13
     bda:	40 ab       	addi r0,-12
     bdc:	03 e0       	mov r3,r0
     bde:	30 f2       	ldhu r0,r3
     be0:	01 e0       	mov r1,r0
     be2:	04 01       	ldli r4,16
     be4:	41 a0       	sl r1,r4
     be6:	00 01       	ldli r0,16
     be8:	01 a2       	sr r1,r0
     bea:	0d 0f       	ldli r13,-16
     bec:	d0 f0       	ldw r0,r13
     bee:	c0 ab       	addi r0,-4
     bf0:	03 e0       	mov r3,r0
     bf2:	30 f0       	ldw r0,r3
     bf4:	20 a1       	sli r0,0x2
     bf6:	14 e0       	mov r4,r1
     bf8:	04 e8       	sra r4,r0
     bfa:	40 e0       	mov r0,r4
     bfc:	f1 00       	ldli r1,15
     bfe:	10 e5       	and r0,r1
     c00:	03 e0       	mov r3,r0
     c02:	0d 0f       	ldli r13,-16
     c04:	d0 f0       	ldw r0,r13
     c06:	80 ab       	addi r0,-8
     c08:	04 e0       	mov r4,r0
     c0a:	40 f0       	ldw r0,r4
     c0c:	01 e0       	mov r1,r0
     c0e:	00 10       	ldhi r0,0
     c10:	00 20       	ldliu r0,0x0
     c12:	80 a1       	sli r0,0x8
     c14:	30 20       	ldliu r0,0x3
     c16:	80 a1       	sli r0,0x8
     c18:	20 20       	ldliu r0,0x2
     c1a:	00 ee       	jsr r0
     c1c:	0d 0f       	ldli r13,-16
     c1e:	d1 f0       	ldw r1,r13
     c20:	c1 ab       	addi r1,-4
     c22:	0d 0f       	ldli r13,-16
     c24:	d0 f0       	ldw r0,r13
     c26:	c0 ab       	addi r0,-4
     c28:	02 e0       	mov r2,r0
     c2a:	20 f0       	ldw r0,r2
     c2c:	10 a8       	addi r0,1
     c2e:	13 e0       	mov r3,r1
     c30:	30 f5       	stw r0,r3
     c32:	0d 0f       	ldli r13,-16
     c34:	d0 f0       	ldw r0,r13
     c36:	c0 ab       	addi r0,-4
     c38:	04 e0       	mov r4,r0
     c3a:	40 f0       	ldw r0,r4
     c3c:	30 38       	cmpi_gt r0,3
     c3e:	bf 8f       	jmpi_cf -65
     c40:	47 0f       	ldli r7,-12
     c42:	7d f0       	ldw r13,r7
     c44:	cd a8       	addi r13,12
     c46:	7d f5       	stw r13,r7
     c48:	07 0f       	ldli r7,-16
     c4a:	0d 4c       	ldfpz_inc r13,0
     c4c:	7d f5       	stw r13,r7
     c4e:	0e 4c       	ldfpz_inc r14,0
     c50:	0e f8       	rts
     c52:	fe 5f       	stfpz_dec r14,-1
     c54:	07 0f       	ldli r7,-16
     c56:	7d f0       	ldw r13,r7
     c58:	fd 5f       	stfpz_dec r13,-1
     c5a:	47 0f       	ldli r7,-12
     c5c:	7d f0       	ldw r13,r7
     c5e:	07 0f       	ldli r7,-16
     c60:	7d f5       	stw r13,r7
     c62:	47 0f       	ldli r7,-12
     c64:	7d f0       	ldw r13,r7
     c66:	0d ab       	addi r13,-16
     c68:	7d f5       	stw r13,r7
     c6a:	0d 0f       	ldli r13,-16
     c6c:	d0 f0       	ldw r0,r13
     c6e:	80 ab       	addi r0,-8
     c70:	04 e0       	mov r4,r0
     c72:	41 f5       	stw r1,r4
     c74:	0d 0f       	ldli r13,-16
     c76:	d0 f0       	ldw r0,r13
     c78:	70 ab       	addi r0,-9
     c7a:	01 e0       	mov r1,r0
     c7c:	12 f7       	stb r2,r1
     c7e:	0d 0f       	ldli r13,-16
     c80:	d0 f0       	ldw r0,r13
     c82:	00 ab       	addi r0,-16
     c84:	02 e0       	mov r2,r0
     c86:	23 f5       	stw r3,r2
     c88:	0d 0f       	ldli r13,-16
     c8a:	d1 f0       	ldw r1,r13
     c8c:	c1 ab       	addi r1,-4
     c8e:	00 00       	ldli r0,0
     c90:	13 e0       	mov r3,r1
     c92:	30 f5       	stw r0,r3
     c94:	0d 0f       	ldli r13,-16
     c96:	d1 f0       	ldw r1,r13
     c98:	c1 ab       	addi r1,-4
     c9a:	00 00       	ldli r0,0
     c9c:	14 e0       	mov r4,r1
     c9e:	40 f5       	stw r0,r4
     ca0:	36 ac       	jmpi 54
     ca2:	0d 0f       	ldli r13,-16
     ca4:	d0 f0       	ldw r0,r13
     ca6:	c0 ab       	addi r0,-4
     ca8:	01 e0       	mov r1,r0
     caa:	10 f0       	ldw r0,r1
     cac:	01 e0       	mov r1,r0
     cae:	0d 0f       	ldli r13,-16
     cb0:	d0 f0       	ldw r0,r13
     cb2:	70 ab       	addi r0,-9
     cb4:	02 e0       	mov r2,r0
     cb6:	20 f4       	ldbu r0,r2
     cb8:	10 e1       	add r0,r1
     cba:	02 e0       	mov r2,r0
     cbc:	0d 0f       	ldli r13,-16
     cbe:	d0 f0       	ldw r0,r13
     cc0:	c0 ab       	addi r0,-4
     cc2:	03 e0       	mov r3,r0
     cc4:	30 f0       	ldw r0,r3
     cc6:	01 e0       	mov r1,r0
     cc8:	21 a1       	sli r1,0x2
     cca:	0d 0f       	ldli r13,-16
     ccc:	d0 f0       	ldw r0,r13
     cce:	00 ab       	addi r0,-16
     cd0:	04 e0       	mov r4,r0
     cd2:	40 f0       	ldw r0,r4
     cd4:	10 a2       	sr r0,r1
     cd6:	f1 00       	ldli r1,15
     cd8:	10 e5       	and r0,r1
     cda:	03 e0       	mov r3,r0
     cdc:	0d 0f       	ldli r13,-16
     cde:	d0 f0       	ldw r0,r13
     ce0:	80 ab       	addi r0,-8
     ce2:	04 e0       	mov r4,r0
     ce4:	40 f0       	ldw r0,r4
     ce6:	01 e0       	mov r1,r0
     ce8:	00 10       	ldhi r0,0
     cea:	00 20       	ldliu r0,0x0
     cec:	80 a1       	sli r0,0x8
     cee:	30 20       	ldliu r0,0x3
     cf0:	80 a1       	sli r0,0x8
     cf2:	20 20       	ldliu r0,0x2
     cf4:	00 ee       	jsr r0
     cf6:	0d 0f       	ldli r13,-16
     cf8:	d1 f0       	ldw r1,r13
     cfa:	c1 ab       	addi r1,-4
     cfc:	0d 0f       	ldli r13,-16
     cfe:	d0 f0       	ldw r0,r13
     d00:	c0 ab       	addi r0,-4
     d02:	02 e0       	mov r2,r0
     d04:	20 f0       	ldw r0,r2
     d06:	10 a8       	addi r0,1
     d08:	13 e0       	mov r3,r1
     d0a:	30 f5       	stw r0,r3
     d0c:	0d 0f       	ldli r13,-16
     d0e:	d0 f0       	ldw r0,r13
     d10:	c0 ab       	addi r0,-4
     d12:	04 e0       	mov r4,r0
     d14:	40 f0       	ldw r0,r4
     d16:	70 38       	cmpi_gt r0,7
     d18:	c5 8f       	jmpi_cf -59
     d1a:	47 0f       	ldli r7,-12
     d1c:	7d f0       	ldw r13,r7
     d1e:	06 01       	ldli r6,16
     d20:	6d e1       	add r13,r6
     d22:	7d f5       	stw r13,r7
     d24:	07 0f       	ldli r7,-16
     d26:	0d 4c       	ldfpz_inc r13,0
     d28:	7d f5       	stw r13,r7
     d2a:	0e 4c       	ldfpz_inc r14,0
     d2c:	0e f8       	rts
     d2e:	07 0f       	ldli r7,-16
     d30:	7d f0       	ldw r13,r7
     d32:	fd 5f       	stfpz_dec r13,-1
     d34:	47 0f       	ldli r7,-12
     d36:	7d f0       	ldw r13,r7
     d38:	07 0f       	ldli r7,-16
     d3a:	7d f5       	stw r13,r7
     d3c:	47 0f       	ldli r7,-12
     d3e:	7d f0       	ldw r13,r7
     d40:	4d ab       	addi r13,-12
     d42:	7d f5       	stw r13,r7
     d44:	0d 0f       	ldli r13,-16
     d46:	d0 f0       	ldw r0,r13
     d48:	80 ab       	addi r0,-8
     d4a:	03 e0       	mov r3,r0
     d4c:	31 f5       	stw r1,r3
     d4e:	0d 0f       	ldli r13,-16
     d50:	d0 f0       	ldw r0,r13
     d52:	70 ab       	addi r0,-9
     d54:	01 e0       	mov r1,r0
     d56:	12 f7       	stb r2,r1
     d58:	0d 0f       	ldli r13,-16
     d5a:	d0 f0       	ldw r0,r13
     d5c:	80 ab       	addi r0,-8
     d5e:	02 e0       	mov r2,r0
     d60:	20 f0       	ldw r0,r2
     d62:	03 e0       	mov r3,r0
     d64:	30 f0       	ldw r0,r3
     d66:	01 e0       	mov r1,r0
     d68:	61 a8       	addi r1,6
     d6a:	0d 0f       	ldli r13,-16
     d6c:	d0 f0       	ldw r0,r13
     d6e:	c0 ab       	addi r0,-4
     d70:	02 e0       	mov r2,r0
     d72:	21 f5       	stw r1,r2
     d74:	0d 0f       	ldli r13,-16
     d76:	d0 f0       	ldw r0,r13
     d78:	70 ab       	addi r0,-9
     d7a:	03 e0       	mov r3,r0
     d7c:	30 f4       	ldbu r0,r3
     d7e:	f1 03       	ldli r1,63
     d80:	10 e5       	and r0,r1
     d82:	01 e0       	mov r1,r0
     d84:	00 0c       	ldli r0,-64
     d86:	10 e6       	or r0,r1
     d88:	01 e0       	mov r1,r0
     d8a:	0d 0f       	ldli r13,-16
     d8c:	d0 f0       	ldw r0,r13
     d8e:	c0 ab       	addi r0,-4
     d90:	02 e0       	mov r2,r0
     d92:	20 f0       	ldw r0,r2
     d94:	03 e0       	mov r3,r0
     d96:	31 f7       	stb r1,r3
     d98:	0d 0f       	ldli r13,-16
     d9a:	d0 f0       	ldw r0,r13
     d9c:	80 ab       	addi r0,-8
     d9e:	01 e0       	mov r1,r0
     da0:	10 f0       	ldw r0,r1
     da2:	02 e0       	mov r2,r0
     da4:	20 f0       	ldw r0,r2
     da6:	01 e0       	mov r1,r0
     da8:	71 a8       	addi r1,7
     daa:	0d 0f       	ldli r13,-16
     dac:	d0 f0       	ldw r0,r13
     dae:	c0 ab       	addi r0,-4
     db0:	03 e0       	mov r3,r0
     db2:	31 f5       	stw r1,r3
     db4:	0d 0f       	ldli r13,-16
     db6:	d0 f0       	ldw r0,r13
     db8:	c0 ab       	addi r0,-4
     dba:	01 e0       	mov r1,r0
     dbc:	10 f0       	ldw r0,r1
     dbe:	02 e0       	mov r2,r0
     dc0:	20 f4       	ldbu r0,r2
     dc2:	83 01       	ldli r3,24
     dc4:	30 a0       	sl r0,r3
     dc6:	81 01       	ldli r1,24
     dc8:	10 a2       	sr r0,r1
     dca:	47 0f       	ldli r7,-12
     dcc:	7d f0       	ldw r13,r7
     dce:	cd a8       	addi r13,12
     dd0:	7d f5       	stw r13,r7
     dd2:	07 0f       	ldli r7,-16
     dd4:	0d 4c       	ldfpz_inc r13,0
     dd6:	7d f5       	stw r13,r7
     dd8:	0e f8       	rts
     dda:	07 0f       	ldli r7,-16
     ddc:	7d f0       	ldw r13,r7
     dde:	fd 5f       	stfpz_dec r13,-1
     de0:	47 0f       	ldli r7,-12
     de2:	7d f0       	ldw r13,r7
     de4:	07 0f       	ldli r7,-16
     de6:	7d f5       	stw r13,r7
     de8:	47 0f       	ldli r7,-12
     dea:	7d f0       	ldw r13,r7
     dec:	8d ab       	addi r13,-8
     dee:	7d f5       	stw r13,r7
     df0:	0d 0f       	ldli r13,-16
     df2:	d0 f0       	ldw r0,r13
     df4:	c0 ab       	addi r0,-4
     df6:	04 e0       	mov r4,r0
     df8:	41 f5       	stw r1,r4
     dfa:	0d 0f       	ldli r13,-16
     dfc:	d0 f0       	ldw r0,r13
     dfe:	b0 ab       	addi r0,-5
     e00:	01 e0       	mov r1,r0
     e02:	12 f7       	stb r2,r1
     e04:	0d 0f       	ldli r13,-16
     e06:	d0 f0       	ldw r0,r13
     e08:	a0 ab       	addi r0,-6
     e0a:	04 e0       	mov r4,r0
     e0c:	43 f7       	stb r3,r4
     e0e:	47 0f       	ldli r7,-12
     e10:	7d f0       	ldw r13,r7
     e12:	8d a8       	addi r13,8
     e14:	7d f5       	stw r13,r7
     e16:	07 0f       	ldli r7,-16
     e18:	0d 4c       	ldfpz_inc r13,0
     e1a:	7d f5       	stw r13,r7
     e1c:	0e f8       	rts
     e1e:	02 b8       	cmpi_eq r2,0
     e20:	11 9c       	jmpi_ct 17
     e22:	01 b8       	cmpi_eq r1,0
     e24:	10 d0       	mov_ct r0,r1
     e26:	0e 9c       	jmpi_ct 14
     e28:	2d e0       	mov r13,r2
     e2a:	f2 b7       	btest r2,0x1f
     e2c:	12 81       	sli_cf r2,0x1
     e2e:	fe 8f       	jmpi_cf -2
     e30:	00 00       	ldli r0,0
     e32:	d2 b3       	cmpu_lt r2,r13
     e34:	07 9c       	jmpi_ct 7
     e36:	10 a1       	sli r0,0x1
     e38:	12 b4       	cmpu_gt r2,r1
     e3a:	21 c3       	sub_cf r1,r2
     e3c:	10 88       	addi_cf r0,1
     e3e:	12 a3       	sri r2,0x1
     e40:	f9 af       	jmpi -7
     e42:	0e f8       	rts
     e44:	02 b8       	cmpi_eq r2,0
     e46:	0e 9c       	jmpi_ct 14
     e48:	01 b8       	cmpi_eq r1,0
     e4a:	10 d0       	mov_ct r0,r1
     e4c:	0b 9c       	jmpi_ct 11
     e4e:	2d e0       	mov r13,r2
     e50:	f2 b7       	btest r2,0x1f
     e52:	12 81       	sli_cf r2,0x1
     e54:	fe 8f       	jmpi_cf -2
     e56:	d2 b3       	cmpu_lt r2,r13
     e58:	05 9c       	jmpi_ct 5
     e5a:	12 b4       	cmpu_gt r2,r1
     e5c:	21 c3       	sub_cf r1,r2
     e5e:	12 a3       	sri r2,0x1
     e60:	fb af       	jmpi -5
     e62:	10 e0       	mov r0,r1
     e64:	0e f8       	rts
     e66:	15 e0       	mov r5,r1
     e68:	03 b8       	cmpi_eq r3,0
     e6a:	0b 9c       	jmpi_ct 11
     e6c:	04 00       	ldli r4,0
     e6e:	51 e0       	mov r1,r5
     e70:	41 e1       	add r1,r4
     e72:	20 e0       	mov r0,r2
     e74:	40 e1       	add r0,r4
     e76:	00 f4       	ldbu r0,r0
     e78:	10 f7       	stb r0,r1
     e7a:	14 a8       	addi r4,1
     e7c:	34 b0       	cmp_eq r4,r3
     e7e:	f8 8f       	jmpi_cf -8
     e80:	50 e0       	mov r0,r5
     e82:	0e f8       	rts
     e84:	10 f3       	ldb r0,r1
     e86:	00 b8       	cmpi_eq r0,0
     e88:	08 9c       	jmpi_ct 8
     e8a:	12 e0       	mov r2,r1
     e8c:	12 a8       	addi r2,1
     e8e:	20 f3       	ldb r0,r2
     e90:	00 b8       	cmpi_eq r0,0
     e92:	fd 8f       	jmpi_cf -3
     e94:	20 e0       	mov r0,r2
     e96:	10 e3       	sub r0,r1
     e98:	0e f8       	rts
     e9a:	00 fe       	nop
     e9c:	ff af       	jmpi -1
     e9e:	80 08       	ldli r0,-120
     ea0:	02 02       	ldli r2,32
     ea2:	02 f7       	stb r2,r0
     ea4:	90 ab       	addi r0,-7
     ea6:	00 f4       	ldbu r0,r0
     ea8:	20 b6       	btest r0,0x2
     eaa:	06 9c       	jmpi_ct 6
     eac:	00 fe       	nop
     eae:	10 08       	ldli r0,-127
     eb0:	00 f4       	ldbu r0,r0
     eb2:	20 b6       	btest r0,0x2
     eb4:	fc 8f       	jmpi_cf -4
     eb6:	10 08       	ldli r0,-127
     eb8:	02 f4       	ldbu r2,r0
     eba:	00 f4       	ldbu r0,r0
     ebc:	50 b6       	btest r0,0x5
     ebe:	0d 8c       	jmpi_cf 13
     ec0:	22 00       	ldli r2,2
     ec2:	10 08       	ldli r0,-127
     ec4:	00 f4       	ldbu r0,r0
     ec6:	30 b6       	btest r0,0x3
     ec8:	0c 8c       	jmpi_cf 12
     eca:	60 08       	ldli r0,-122
     ecc:	00 f2       	ldhu r0,r0
     ece:	80 08       	ldli r0,-120
     ed0:	81 02       	ldli r1,40
     ed2:	01 f7       	stb r1,r0
     ed4:	32 00       	ldli r2,3
     ed6:	0d ac       	jmpi 13
     ed8:	62 a3       	sri r2,0x6
     eda:	14 00       	ldli r4,1
     edc:	42 e5       	and r2,r4
     ede:	f2 af       	jmpi -14
     ee0:	60 08       	ldli r0,-122
     ee2:	03 f2       	ldhu r3,r0
     ee4:	20 a8       	addi r0,2
     ee6:	84 02       	ldli r4,40
     ee8:	04 f7       	stb r4,r0
     eea:	02 b8       	cmpi_eq r2,0
     eec:	02 8c       	jmpi_cf 2
     eee:	13 f7       	stb r3,r1
     ef0:	20 e0       	mov r0,r2
     ef2:	0e f8       	rts
     ef4:	00 00       	ldli r0,0
     ef6:	0e f8       	rts
     ef8:	f9 5f       	stfpz_dec r9,-1
     efa:	fe 5f       	stfpz_dec r14,-1
     efc:	07 0f       	ldli r7,-16
     efe:	7d f0       	ldw r13,r7
     f00:	fd 5f       	stfpz_dec r13,-1
     f02:	47 0f       	ldli r7,-12
     f04:	7d f0       	ldw r13,r7
     f06:	07 0f       	ldli r7,-16
     f08:	7d f5       	stw r13,r7
     f0a:	0d 0f       	ldli r13,-16
     f0c:	d0 f0       	ldw r0,r13
     f0e:	c0 a8       	addi r0,12
     f10:	07 f0       	ldw r7,r0
     f12:	03 e0       	mov r3,r0
     f14:	83 a8       	addi r3,8
     f16:	31 f0       	ldw r1,r3
     f18:	f4 00       	ldli r4,15
     f1a:	41 e5       	and r1,r4
     f1c:	16 e0       	mov r6,r1
     f1e:	04 e0       	mov r4,r0
     f20:	44 a8       	addi r4,4
     f22:	42 f0       	ldw r2,r4
     f24:	02 b8       	cmpi_eq r2,0
     f26:	60 9c       	jmpi_ct 96
     f28:	35 08       	ldli r5,-125
     f2a:	09 00       	ldli r9,0
     f2c:	59 f7       	stb r9,r5
     f2e:	07 f5       	stw r7,r0
     f30:	30 f0       	ldw r0,r3
     f32:	09 0f       	ldli r9,-16
     f34:	90 e5       	and r0,r9
     f36:	10 e6       	or r0,r1
     f38:	30 f5       	stw r0,r3
     f3a:	42 f5       	stw r2,r4
     f3c:	33 f0       	ldw r3,r3
     f3e:	01 03       	ldli r1,48
     f40:	31 e5       	and r1,r3
     f42:	01 b8       	cmpi_eq r1,0
     f44:	47 8c       	jmpi_cf 71
     f46:	63 b6       	btest r3,0x6
     f48:	3c 9c       	jmpi_ct 60
     f4a:	f3 00       	ldli r3,15
     f4c:	63 e5       	and r3,r6
     f4e:	33 b6       	btest r3,0x3
     f50:	31 9c       	jmpi_ct 49
     f52:	23 b6       	btest r3,0x2
     f54:	28 9c       	jmpi_ct 40
     f56:	13 b6       	btest r3,0x1
     f58:	1f 9c       	jmpi_ct 31
     f5a:	03 b6       	btest r3,0x0
     f5c:	18 9c       	jmpi_ct 24
     f5e:	31 08       	ldli r1,-125
     f60:	10 f4       	ldbu r0,r1
     f62:	40 a4       	bset r0,0x4
     f64:	10 f7       	stb r0,r1
     f66:	71 e0       	mov r1,r7
     f68:	00 10       	ldhi r0,0
     f6a:	00 20       	ldliu r0,0x0
     f6c:	80 a1       	sli r0,0x8
     f6e:	70 20       	ldliu r0,0x7
     f70:	80 a1       	sli r0,0x8
     f72:	f0 20       	ldliu r0,0xf
     f74:	00 ee       	jsr r0
     f76:	02 e0       	mov r2,r0
     f78:	42 a1       	sli r2,0x4
     f7a:	44 01       	ldli r4,20
     f7c:	40 a0       	sl r0,r4
     f7e:	85 01       	ldli r5,24
     f80:	50 a2       	sr r0,r5
     f82:	51 08       	ldli r1,-123
     f84:	10 f7       	stb r0,r1
     f86:	40 08       	ldli r0,-124
     f88:	02 f7       	stb r2,r0
     f8a:	2e ac       	jmpi 46
     f8c:	31 08       	ldli r1,-125
     f8e:	10 f4       	ldbu r0,r1
     f90:	00 a4       	bset r0,0x0
     f92:	10 f7       	stb r0,r1
     f94:	e5 af       	jmpi -27
     f96:	31 08       	ldli r1,-125
     f98:	10 f4       	ldbu r0,r1
     f9a:	10 a4       	bset r0,0x1
     f9c:	10 f7       	stb r0,r1
     f9e:	03 b6       	btest r3,0x0
     fa0:	df 8f       	jmpi_cf -33
     fa2:	f5 af       	jmpi -11
     fa4:	31 08       	ldli r1,-125
     fa6:	10 f4       	ldbu r0,r1
     fa8:	20 a4       	bset r0,0x2
     faa:	10 f7       	stb r0,r1
     fac:	13 b6       	btest r3,0x1
     fae:	d6 8f       	jmpi_cf -42
     fb0:	f3 af       	jmpi -13
     fb2:	31 08       	ldli r1,-125
     fb4:	10 f4       	ldbu r0,r1
     fb6:	30 a4       	bset r0,0x3
     fb8:	10 f7       	stb r0,r1
     fba:	23 b6       	btest r3,0x2
     fbc:	cd 8f       	jmpi_cf -51
     fbe:	f3 af       	jmpi -13
     fc0:	31 08       	ldli r1,-125
     fc2:	10 f4       	ldbu r0,r1
     fc4:	50 a4       	bset r0,0x5
     fc6:	10 f7       	stb r0,r1
     fc8:	f3 00       	ldli r3,15
     fca:	63 e5       	and r3,r6
     fcc:	33 b6       	btest r3,0x3
     fce:	c2 8f       	jmpi_cf -62
     fd0:	f1 af       	jmpi -15
     fd2:	50 f4       	ldbu r0,r5
     fd4:	08 08       	ldli r8,-128
     fd6:	80 e6       	or r0,r8
     fd8:	50 f7       	stb r0,r5
     fda:	01 b9       	cmpi_eq r1,16
     fdc:	b5 8f       	jmpi_cf -75
     fde:	50 f4       	ldbu r0,r5
     fe0:	60 a4       	bset r0,0x6
     fe2:	50 f7       	stb r0,r5
     fe4:	b1 af       	jmpi -79
     fe6:	07 0f       	ldli r7,-16
     fe8:	0d 4c       	ldfpz_inc r13,0
     fea:	7d f5       	stw r13,r7
     fec:	0e 4c       	ldfpz_inc r14,0
     fee:	09 4c       	ldfpz_inc r9,0
     ff0:	0e f8       	rts
     ff2:	00 00       	ldli r0,0
     ff4:	0e f8       	rts
     ff6:	f9 5f       	stfpz_dec r9,-1
     ff8:	fa 5f       	stfpz_dec r10,-1
     ffa:	fb 5f       	stfpz_dec r11,-1
     ffc:	fc 5f       	stfpz_dec r12,-1
     ffe:	fe 5f       	stfpz_dec r14,-1
    1000:	07 0f       	ldli r7,-16
    1002:	7d f0       	ldw r13,r7
    1004:	fd 5f       	stfpz_dec r13,-1
    1006:	47 0f       	ldli r7,-12
    1008:	7d f0       	ldw r13,r7
    100a:	07 0f       	ldli r7,-16
    100c:	7d f5       	stw r13,r7
    100e:	47 0f       	ldli r7,-12
    1010:	7d f0       	ldw r13,r7
    1012:	cd ab       	addi r13,-4
    1014:	7d f5       	stw r13,r7
    1016:	2c e0       	mov r12,r2
    1018:	3b e0       	mov r11,r3
    101a:	03 38       	cmpi_gt r3,0
    101c:	17 8c       	jmpi_cf 23
    101e:	09 00       	ldli r9,0
    1020:	0d 0f       	ldli r13,-16
    1022:	da f0       	ldw r10,r13
    1024:	fa ab       	addi r10,-1
    1026:	a1 e0       	mov r1,r10
    1028:	02 10       	ldhi r2,0
    102a:	02 20       	ldliu r2,0x0
    102c:	82 a1       	sli r2,0x8
    102e:	72 20       	ldliu r2,0x7
    1030:	82 a1       	sli r2,0x8
    1032:	f2 24       	ldliu r2,0x4f
    1034:	02 ee       	jsr r2
    1036:	00 b8       	cmpi_eq r0,0
    1038:	0a 8c       	jmpi_cf 10
    103a:	90 e0       	mov r0,r9
    103c:	c0 e1       	add r0,r12
    103e:	a1 f4       	ldbu r1,r10
    1040:	01 f7       	stb r1,r0
    1042:	19 a8       	addi r9,1
    1044:	9b b0       	cmp_eq r11,r9
    1046:	f0 8f       	jmpi_cf -16
    1048:	02 ac       	jmpi 2
    104a:	09 00       	ldli r9,0
    104c:	90 e0       	mov r0,r9
    104e:	47 0f       	ldli r7,-12
    1050:	7d f0       	ldw r13,r7
    1052:	4d a8       	addi r13,4
    1054:	7d f5       	stw r13,r7
    1056:	07 0f       	ldli r7,-16
    1058:	0d 4c       	ldfpz_inc r13,0
    105a:	7d f5       	stw r13,r7
    105c:	0e 4c       	ldfpz_inc r14,0
    105e:	0c 4c       	ldfpz_inc r12,0
    1060:	0b 4c       	ldfpz_inc r11,0
    1062:	0a 4c       	ldfpz_inc r10,0
    1064:	09 4c       	ldfpz_inc r9,0
    1066:	0e f8       	rts
    1068:	f9 5f       	stfpz_dec r9,-1
    106a:	fa 5f       	stfpz_dec r10,-1
    106c:	fb 5f       	stfpz_dec r11,-1
    106e:	fc 5f       	stfpz_dec r12,-1
    1070:	fe 5f       	stfpz_dec r14,-1
    1072:	07 0f       	ldli r7,-16
    1074:	7d f0       	ldw r13,r7
    1076:	fd 5f       	stfpz_dec r13,-1
    1078:	47 0f       	ldli r7,-12
    107a:	7d f0       	ldw r13,r7
    107c:	07 0f       	ldli r7,-16
    107e:	7d f5       	stw r13,r7
    1080:	47 0f       	ldli r7,-12
    1082:	7d f0       	ldw r13,r7
    1084:	cd ab       	addi r13,-4
    1086:	7d f5       	stw r13,r7
    1088:	2b e0       	mov r11,r2
    108a:	3c e0       	mov r12,r3
    108c:	03 38       	cmpi_gt r3,0
    108e:	1f 8c       	jmpi_cf 31
    1090:	0a 00       	ldli r10,0
    1092:	0d 0f       	ldli r13,-16
    1094:	d9 f0       	ldw r9,r13
    1096:	f9 ab       	addi r9,-1
    1098:	91 e0       	mov r1,r9
    109a:	02 10       	ldhi r2,0
    109c:	02 20       	ldliu r2,0x0
    109e:	82 a1       	sli r2,0x8
    10a0:	72 20       	ldliu r2,0x7
    10a2:	82 a1       	sli r2,0x8
    10a4:	f2 24       	ldliu r2,0x4f
    10a6:	02 ee       	jsr r2
    10a8:	00 b8       	cmpi_eq r0,0
    10aa:	0d 8c       	jmpi_cf 13
    10ac:	91 f4       	ldbu r1,r9
    10ae:	90 f3       	ldb r0,r9
    10b0:	d0 b8       	cmpi_eq r0,13
    10b2:	07 9c       	jmpi_ct 7
    10b4:	a0 b8       	cmpi_eq r0,10
    10b6:	07 9c       	jmpi_ct 7
    10b8:	b0 e0       	mov r0,r11
    10ba:	a0 e1       	add r0,r10
    10bc:	01 f7       	stb r1,r0
    10be:	1a a8       	addi r10,1
    10c0:	ca b1       	cmp_lt r10,r12
    10c2:	eb 9f       	jmpi_ct -21
    10c4:	ab e1       	add r11,r10
    10c6:	02 00       	ldli r2,0
    10c8:	b2 f7       	stb r2,r11
    10ca:	02 ac       	jmpi 2
    10cc:	0a 00       	ldli r10,0
    10ce:	a0 e0       	mov r0,r10
    10d0:	47 0f       	ldli r7,-12
    10d2:	7d f0       	ldw r13,r7
    10d4:	4d a8       	addi r13,4
    10d6:	7d f5       	stw r13,r7
    10d8:	07 0f       	ldli r7,-16
    10da:	0d 4c       	ldfpz_inc r13,0
    10dc:	7d f5       	stw r13,r7
    10de:	0e 4c       	ldfpz_inc r14,0
    10e0:	0c 4c       	ldfpz_inc r12,0
    10e2:	0b 4c       	ldfpz_inc r11,0
    10e4:	0a 4c       	ldfpz_inc r10,0
    10e6:	09 4c       	ldfpz_inc r9,0
    10e8:	0e f8       	rts
    10ea:	03 38       	cmpi_gt r3,0
    10ec:	27 8c       	jmpi_cf 39
    10ee:	04 00       	ldli r4,0
    10f0:	40 e0       	mov r0,r4
    10f2:	20 e1       	add r0,r2
    10f4:	01 f4       	ldbu r1,r0
    10f6:	10 08       	ldli r0,-127
    10f8:	00 f4       	ldbu r0,r0
    10fa:	10 b6       	btest r0,0x1
    10fc:	06 9c       	jmpi_ct 6
    10fe:	00 fe       	nop
    1100:	10 08       	ldli r0,-127
    1102:	00 f4       	ldbu r0,r0
    1104:	10 b6       	btest r0,0x1
    1106:	fc 8f       	jmpi_cf -4
    1108:	10 e0       	mov r0,r1
    110a:	85 01       	ldli r5,24
    110c:	50 a0       	sl r0,r5
    110e:	50 e8       	sra r0,r5
    1110:	61 08       	ldli r1,-122
    1112:	10 f6       	sth r0,r1
    1114:	80 08       	ldli r0,-120
    1116:	81 01       	ldli r1,24
    1118:	01 f7       	stb r1,r0
    111a:	90 ab       	addi r0,-7
    111c:	00 f4       	ldbu r0,r0
    111e:	10 b6       	btest r0,0x1
    1120:	06 9c       	jmpi_ct 6
    1122:	00 fe       	nop
    1124:	10 08       	ldli r0,-127
    1126:	00 f4       	ldbu r0,r0
    1128:	10 b6       	btest r0,0x1
    112a:	fc 8f       	jmpi_cf -4
    112c:	80 08       	ldli r0,-120
    112e:	05 00       	ldli r5,0
    1130:	05 f7       	stb r5,r0
    1132:	14 a8       	addi r4,1
    1134:	43 b0       	cmp_eq r3,r4
    1136:	dd 8f       	jmpi_cf -35
    1138:	02 ac       	jmpi 2
    113a:	03 00       	ldli r3,0
    113c:	30 e0       	mov r0,r3
    113e:	0e f8       	rts

Disassembly of section .rodata:

00000000 <.rodata>:
   0:	0a 0d       	ldli r10,-48
   2:	48 61       	ldfpw r8,20
   4:	6c 6c       	ldfpz r12,6
   6:	6f 20       	ldliu r15,0x6
   8:	57 65       	ldfpx r7,21
   a:	6c 74       	stfpx r12,6
   c:	21 0a       	ldli r1,-94
   e:	0d 00       	ldli r13,0
  10:	00 00       	ldli r0,0
  12:	00 00       	ldli r0,0
  14:	00 00       	ldli r0,0
  16:	00 00       	ldli r0,0
  18:	00 00       	ldli r0,0
  1a:	00 00       	ldli r0,0
  1c:	00 00       	ldli r0,0
  1e:	00 00       	ldli r0,0
  20:	50 75       	stfpx r0,21
  22:	73 68       	ldfpy r3,7
  24:	62 75       	stfpx r2,22
  26:	74 74       	stfpx r4,7
  28:	6f 6e       	ldfpz r15,-26
  2a:	20 31       	cmpi_lt r0,18
  2c:	0d 00       	ldli r13,0
  2e:	00 00       	ldli r0,0
  30:	00 00       	ldli r0,0
  32:	00 00       	ldli r0,0
  34:	00 00       	ldli r0,0
  36:	00 00       	ldli r0,0
  38:	00 00       	ldli r0,0
  3a:	00 00       	ldli r0,0
  3c:	00 00       	ldli r0,0
  3e:	00 00       	ldli r0,0
  40:	50 75       	stfpx r0,21
  42:	73 68       	ldfpy r3,7
  44:	62 75       	stfpx r2,22
  46:	74 74       	stfpx r4,7
  48:	6f 6e       	ldfpz r15,-26
  4a:	20 32       	cmpi_lt r0,34
  4c:	0d 00       	ldli r13,0
  4e:	00 00       	ldli r0,0
  50:	00 00       	ldli r0,0
  52:	00 00       	ldli r0,0
  54:	00 00       	ldli r0,0
  56:	00 00       	ldli r0,0
  58:	00 00       	ldli r0,0
  5a:	00 00       	ldli r0,0
  5c:	00 00       	ldli r0,0
  5e:	00 00       	ldli r0,0
  60:	50 75       	stfpx r0,21
  62:	73 68       	ldfpy r3,7
  64:	62 75       	stfpx r2,22
  66:	74 74       	stfpx r4,7
  68:	6f 6e       	ldfpz r15,-26
  6a:	20 33       	cmpi_lt r0,50
  6c:	0d 00       	ldli r13,0
  6e:	00 00       	ldli r0,0
  70:	00 00       	ldli r0,0
  72:	00 00       	ldli r0,0
  74:	00 00       	ldli r0,0
  76:	00 00       	ldli r0,0
  78:	00 00       	ldli r0,0
  7a:	00 00       	ldli r0,0
  7c:	00 00       	ldli r0,0
  7e:	00 00       	ldli r0,0

Disassembly of section .bss:

00000080 <.bss>:
  80:	00 00       	ldli r0,0
  82:	00 00       	ldli r0,0
  84:	00 00       	ldli r0,0
  86:	00 00       	ldli r0,0
  88:	00 00       	ldli r0,0
  8a:	00 00       	ldli r0,0
