
main:     file format elf32-scarts_32
main
architecture: scarts_32, flags 0x00000102:
EXEC_P, D_PAGED
start address 0x00000000

Program Header:
    LOAD off    0x00000078 vaddr 0x00000000 paddr 0x00000000 align 2**3
         filesz 0x000000a0 memsz 0x000000ac flags rw-
    LOAD off    0x00000118 vaddr 0x00000000 paddr 0x80000000 align 2**0
         filesz 0x0000110e memsz 0x0000110e flags r-x

Sections:
Idx Name          Size      VMA       LMA       File off  Algn  Flags
  0 .text         0000110e  00000000  80000000  00000118  2**0  CONTENTS, ALLOC, LOAD, READONLY, CODE
  1 .rodata       000000a0  00000000  00000000  00000078  2**0  CONTENTS, ALLOC, LOAD, READONLY, DATA
  2 .bss          0000000c  000000a0  000000a0  00000118  2**3  ALLOC
SYMBOL TABLE:
no symbols


Contents of section .text:
 0000 05100520 85a10520 85a1052a 06100620  ... ... ...*... 
 0010 86a10620 86a1c62a 65b0069c 070057f5  ... ...*e.....W.
 0020 45a865b1 fd9f0010 00200110 01200210  E.e...... ... ..
 0030 02200310 03200410 04200510 05200610  . ... ... ... ..
 0040 06200710 07200810 08200910 09200a10  . ... ... ... ..
 0050 0a200b10 0b200c10 0c200d10 0d200e10  . ... ... ... ..
 0060 0e200f10 0f20870e 0d100d20 7df5c70e  . ... ..... }...
 0070 0d100d20 7df5070f 0d100d20 7df5470f  ... }...... }.G.
 0080 0d100d20 7df50d10 2d208da1 0d208da1  ... }...- ... ..
 0090 0d20070f 7df5470f 7df50d10 0d208da1  . ..}.G.}.... ..
 00a0 0d208da1 cd250dee 01e00d10 0d208da1  . ...%....... ..
 00b0 7d208da1 4d230dee f95ffa5f fb5ffc5f  } ..M#..._._._._
 00c0 fe5f070f 7df0fd5f 470f7df0 070f7df5  ._..}.._G.}...}.
 00d0 470f7df0 c604f61f 6de17df5 0d0fdbf0  G.}.....m.}.....
 00e0 400d0be1 09100920 89a17920 89a10921  @...... ..y ...!
 00f0 b1e00210 022082a1 022082a1 02200301  ..... ... ... ..
 0100 09ee0d0f d0f040aa 020002f5 40a802f5  ......@.....@...
 0110 40a802f5 40a802f5 0d0fd1f0 400b01e1  @...@.......@...
 0120 02100220 82a10220 82a10222 f30009ee  ... ... ..."....
 0130 0a100a20 8aa17a20 8aa1fa21 410b0d0f  ... ..z ...!A...
 0140 ddf0d1e1 f1a80200 13010aee 0d0fd1f0  ................
 0150 420921e1 02100220 82a10220 82a10224  B.!.... ... ...$
 0160 f30009ee 41090d0f ddf0d1e1 f1a80200  ....A...........
 0170 13010aee 0d0fd1f0 4307f31f 31e10210  ........C...1...
 0180 022082a1 022082a1 0226f300 09ee4107  . ... ...&....A.
 0190 f11f0d0f ddf0d1e1 f1a80200 13010aee  ................
 01a0 0d0fd0f0 4405f41f 40e184ab 0d0fddf0  ....D...@.......
 01b0 d4e140f5 00100020 80a10020 80a10028  ..@.... ... ...(
 01c0 02f441f0 12f711a8 10a800f4 10f7f1ab  ..A.............
 01d0 41f521a8 0200e301 0aee2310 a32f83a1  A.!.......#../..
 01e0 032f83a1 0328d37b 04101420 84a1242c  ./...(.{... ..$,
 01f0 84a10420 e47b0d0f d0f0c0ab 01f0030c  ... .{..........
 0200 31e57400 41e651a4 61a601f5 4d0fd0f0  1.t.A.Q.a...M...
 0210 40ab4d0f d0f52210 a22f82a1 022f82a1  @.M..."../.../..
 0220 0228027c 40a80410 142084a1 242c84a1  .(.|@.... ..$,..
 0230 042004f5 40a801f5 00100020 80a17020  . ..@...... ..p 
 0240 80a13026 00ee4d0f d0f0c0a8 4d0fd0f5  ..0&..M.....M...
 0250 01100120 81a10120 81a1012a 020ee21f  ... ... ...*....
 0260 83000010 002080a1 202080a1 402500ee  ..... ..  ..@%..
 0270 01100120 81a10120 81a1012a 02002304  ... ... ...*..#.
 0280 00100020 80a16020 80a16020 00eeb1e0  ... ..` ..` ....
 0290 02100220 82a17220 82a19222 02ee0100  ... ..r ..."....
 02a0 b2e003e0 04100420 84a18420 84a1c425  ....... ... ...%
 02b0 04ee0900 01100120 81a12120 81a15122  ....... ..! ..Q"
 02c0 01ee0205 f21f0d0f ddf0d2e1 20f509b0  ............ ...
 02d0 139c20b6 a09c0005 f01f0d0f ddf0d0e1  .. .............
 02e0 00f010b6 7f9c0005 f01f0d0f ddf0d0e1  ................
 02f0 00f000b6 5e9c0b00 0a003c04 ec1fa9e0  ....^.....<.....
 0300 800109a0 09a291e0 02100220 82a12220  ........... .." 
 0310 82a13223 02ee8301 30a030a2 10b8419c  ..2#....0.0...A.
 0320 09b8058c 0200c2f5 1aa8eaaf a0e010a8  ................
 0330 0ae08301 30a030a2 1d01d0b4 e18fc404  ....0.0.........
 0340 f41f0d0f ddf0d4e1 41f00210 022082a1  ........A.... ..
 0350 722082a1 922202ee 0100c304 f31f0d0f  r ..."..........
 0360 ddf0d3e1 32f003e0 04100420 84a18420  ....2...... ... 
 0370 84a1c425 04ee3110 412181a1 012081a1  ...%..1.A!... ..
 0380 0120b1e6 00100020 80a12020 80a17024  . ..... ..  ..p$
 0390 00ee0105 f11f0d0f ddf0d1e1 19f08baf  ................
 03a0 90a00be6 09b8c38f 1000c0f5 1aa8a8af  ................
 03b0 0d0fd1f0 420b21e1 03100320 83a17320  ....B.!.... ..s 
 03c0 83a19322 03ee0100 0d0fd2f0 440b42e1  ..."........D.B.
 03d0 03e00410 042084a1 842084a1 c42504ee  ..... ... ...%..
 03e0 8baf0d0f d1f04209 21e10310 032083a1  ......B.!.... ..
 03f0 732083a1 932203ee 01000d0f d2f04409  s ..."........D.
 0400 42e103e0 04100420 84a18420 84a1c425  B...... ... ...%
 0410 04ee6aaf 0d0fd1f0 4307f31f 31e10410  ..j.....C...1...
 0420 042084a1 742084a1 942204ee 01000d0f  . ..t ..."......
 0430 d2f04307 f31f32e1 03e00410 042084a1  ..C...2...... ..
 0440 842084a1 c42504ee 47af4208 e21f21f0  . ...%..G.B...!.
 0450 01ec1300 31e520f0 10b61184 20f020b6  ....1. ..... . .
 0460 218410e0 0ef84008 e01f02f0 030032e9  !.....@.......2.
 0470 00103020 80a1f02f 80a1f02f 02e51000  ..0 .../.../....
 0480 10a002e5 02b8029c 130030e0 0ef812e0  ..........0.....
 0490 500102a0 4008e01f 02f551a1 000101a2  P...@.....Q.....
 04a0 8008e01f 01f50ef8 070f7df0 fd5f470f  ..........}.._G.
 04b0 7df0070f 7df5470f 7df04dab 7df50d0f  }...}.G.}.M.}...
 04c0 d0f0c0ab 04e041f5 0d0fd0f0 80ab01e0  ......A.........
 04d0 12f50d0f d0f070ab 02e023f7 0d0fd0f0  ......p...#.....
 04e0 c0ab04e0 41f00d0f d0f080ab 02e020f0  ....A......... .
 04f0 14e040f5 0d0fd0f0 c0ab01e0 10f001e0  ..@.............
 0500 41a80d0f d0f070ab 02e020f4 14e040f7  A.....p... ...@.
 0510 470f7df0 cda87df5 070f0d4c 7df50ef8  G.}...}....L}...
 0520 070f7df0 fd5f470f 7df0070f 7df5470f  ..}.._G.}...}.G.
 0530 7df0cdab 7df50d0f d0f0c0ab 02e021f5  }...}.........!.
 0540 470f7df0 4da87df5 070f0d4c 7df50ef8  G.}.M.}....L}...
 0550 070f7df0 fd5f470f 7df0070f 7df5470f  ..}.._G.}...}.G.
 0560 7df04dab 7df50d0f d0f080ab 03e031f5  }.M.}.........1.
 0570 0d0fd0f0 60ab01e0 12f60d0f d0f080ab  ....`...........
 0580 02e020f0 03e030f0 01e041a8 0d0fd0f0  .. ...0...A.....
 0590 c0ab02e0 21f50d0f d0f0c0ab 03e031f0  ....!.........1.
 05a0 0d0fd0f0 60ab02e0 20f213e0 30f6470f  ....`... ...0.G.
 05b0 7df0cda8 7df5070f 0d4c7df5 0ef8070f  }...}....L}.....
 05c0 7df0fd5f 470f7df0 070f7df5 470f7df0  }.._G.}...}.G.}.
 05d0 4dab7df5 0d0fd0f0 80ab04e0 41f50d0f  M.}.........A...
 05e0 d0f070ab 01e012f7 0d0fd0f0 60ab02e0  ..p.........`...
 05f0 23f70d0f d0f080ab 04e040f0 01e010f0  #.........@.....
 0600 01e061a8 0d0fd0f0 c0ab02e0 21f50d0f  ..a.........!...
 0610 d0f070ab 04e040f4 f10310e5 60a401e0  ..p...@.....`...
 0620 0d0fd0f0 c0ab02e0 20f004e0 41f70d0f  ........ ...A...
 0630 d0f080ab 01e010f0 02e020f0 01e071a8  .......... ...q.
 0640 0d0fd0f0 c0ab04e0 41f50d0f d0f0c0ab  ........A.......
 0650 02e021f0 0d0fd0f0 60ab04e0 40f412e0  ..!.....`...@...
 0660 20f7470f 7df0cda8 7df5070f 0d4c7df5   .G.}...}....L}.
 0670 0ef8fe5f 070f7df0 fd5f470f 7df0070f  ..._..}.._G.}...
 0680 7df5470f 7df00dab 7df50d0f d0f080ab  }.G.}...}.......
 0690 04e041f5 0d0fd0f0 70ab01e0 12f70d0f  ..A.....p.......
 06a0 d0f060ab 02e023f7 0d0fd1f0 c1ab0000  ..`...#.........
 06b0 14e040f5 0d0fd1f0 c1ab0000 12e020f5  ..@........... .
 06c0 51ac0d0f d0f0c0ab 04e040f0 01e00d0f  Q.........@.....
 06d0 d0f070ab 02e020f4 10e104e0 0d0fd0f0  ..p... .........
 06e0 60ab01e0 10f48201 20a08101 10a2a200  `....... .......
 06f0 03100320 83a16320 83a1f32f 01e003ee  ... ..c .../....
 0700 03e00d0f d0f080ab 02e020f0 01e042e0  .......... ...B.
 0710 00100020 80a12020 80a1f02d 00ee0d0f  ... ..  ...-....
 0720 d4f064ab 0d0fd0f0 60ab01e0 10f48201  ..d.....`.......
 0730 20a08101 10a2a200 03100320 83a16320   .......... ..c 
 0740 83a1c32e 01e003ee 42e020f7 0d0fd1f0  ........B. .....
 0750 c1ab0d0f d0f0c0ab 04e040f0 10a812e0  ..........@.....
 0760 20f50d0f d0f080ab 04e040f0 40a801e0   .........@.@...
 0770 10f48201 20a08401 40a23d00 d0b4129c  .... ...@.=.....
 0780 0d0fd0f0 80ab01e0 10f040a8 02e020f4  ..........@... .
 0790 04e08101 14a0c47b c26b8401 42a2c27b  .......{.k..B..{
 07a0 03ac3000 c07b0d0f d0f0c0ab 01e010f0  ..0..{..........
 07b0 c26b02b2 879f470f 7df00601 6de17df5  .k....G.}...m.}.
 07c0 070f0d4c 7df50e4c 0ef8fe5f 070f7df0  ...L}..L..._..}.
 07d0 fd5f470f 7df0070f 7df5470f 7df00dab  ._G.}...}.G.}...
 07e0 7df50d0f d0f080ab 04e041f5 0d0fd0f0  }.........A.....
 07f0 70ab01e0 12f70d0f d0f040ab 02e023f6  p.........@...#.
 0800 0d0fd1f0 c1ab0000 14e040f5 0d0fd1f0  ..........@.....
 0810 c1ab0000 12e020f5 51ac0d0f d0f0c0ab  ...... .Q.......
 0820 04e040f0 01e00d0f d0f070ab 02e020f4  ..@.......p... .
 0830 10e104e0 0d0fd0f0 40ab01e0 10f20201  ........@.......
 0840 20a00101 10a2a200 03100320 83a16320   .......... ..c 
 0850 83a1f32f 01e003ee 03e00d0f d0f080ab  .../............
 0860 02e020f0 01e042e0 00100020 80a12020  .. ...B.... ..  
 0870 80a1f02d 00ee0d0f d4f044ab 0d0fd0f0  ...-......D.....
 0880 40ab01e0 10f20201 20a00101 10a2a200  @....... .......
 0890 03100320 83a16320 83a1c32e 01e003ee  ... ..c ........
 08a0 42e020f6 0d0fd1f0 c1ab0d0f d0f0c0ab  B. .............
 08b0 04e040f0 10a812e0 20f50d0f d0f080ab  ..@..... .......
 08c0 04e040f0 40a801e0 10f48201 20a08401  ..@.@....... ...
 08d0 40a25d00 d0b4129c 0d0fd0f0 80ab01e0  @.].............
 08e0 10f040a8 02e020f4 04e08101 14a0c47b  ..@... ........{
 08f0 c26b8401 42a2c27b 03ac5000 c07b0d0f  .k..B..{..P..{..
 0900 d0f0c0ab 01e010f0 c26b02b2 879f470f  .........k....G.
 0910 7df00601 6de17df5 070f0d4c 7df50e4c  }...m.}....L}..L
 0920 0ef8fe5f 070f7df0 fd5f470f 7df0070f  ..._..}.._G.}...
 0930 7df5470f 7df0c60e 6de17df5 0d0fd0f0  }.G.}...m.}.....
 0940 80ab04e0 41f50d0f d0f070ab 01e012f7  ....A.....p.....
 0950 0d0fd0f0 00ab02e0 23f50d0f d1f0c1ab  ........#.......
 0960 000014e0 40f50d0f d1f0c1ab 000012e0  ....@...........
 0970 20f549ac 0d0fd0f0 c0ab04e0 40f001e0   .I.........@...
 0980 0d0fd0f0 70ab02e0 20f410e1 04e00d0f  ....p... .......
 0990 d0f000ab 01e010f0 a2000310 032083a1  ............. ..
 09a0 632083a1 f32f01e0 03ee03e0 0d0fd0f0  c .../..........
 09b0 80ab02e0 20f001e0 42e00010 002080a1  .... ...B.... ..
 09c0 202080a1 f02d00ee 0d0fd4f0 04ab0d0f    ...-..........
 09d0 d0f000ab 01e010f0 a2000310 032083a1  ............. ..
 09e0 632083a1 c32e01e0 03ee42e0 20f50d0f  c ........B. ...
 09f0 d1f0c1ab 0d0fd0f0 c0ab04e0 40f010a8  ............@...
 0a00 12e020f5 0d0fd0f0 80ab04e0 40f040a8  .. .........@.@.
 0a10 01e010f4 820120a0 840140a2 ad00d0b4  ...... ...@.....
 0a20 129c0d0f d0f080ab 01e010f0 40a802e0  ............@...
 0a30 20f404e0 810114a0 b47bb26b 840142a2   ........{.k..B.
 0a40 b27b03ac a000b07b 0d0fd0f0 c0ab01e0  .{.....{........
 0a50 10f0b26b 02b28f9f 470f7df0 46016de1  ...k....G.}.F.m.
 0a60 7df5070f 0d4c7df5 0e4c0ef8 fe5f070f  }....L}..L..._..
 0a70 7df0fd5f 470f7df0 070f7df5 470f7df0  }.._G.}...}.G.}.
 0a80 8dab7df5 0d0fd0f0 c0ab04e0 41f50d0f  ..}.........A...
 0a90 d0f0b0ab 01e012f7 0d0fd0f0 a0ab02e0  ................
 0aa0 23f70d0f d0f0a0ab 04e040f4 f10010e5  #.........@.....
 0ab0 03e00d0f d0f0c0ab 02e021f0 0d0fd0f0  ..........!.....
 0ac0 b0ab04e0 40f402e0 00100020 80a12020  ....@...... ..  
 0ad0 80a1f02d 00ee0d0f d0f0b0ab 01e010f4  ...-............
 0ae0 10a802e0 0d0fd0f0 a0ab04e0 40f48101  ............@...
 0af0 10a08401 40a240a3 03e00d0f d0f0c0ab  ....@.@.........
 0b00 01e010f0 01e00010 002080a1 202080a1  ......... ..  ..
 0b10 f02d00ee 470f7df0 8da87df5 070f0d4c  .-..G.}...}....L
 0b20 7df50e4c 0ef8fe5f 070f7df0 fd5f470f  }..L..._..}.._G.
 0b30 7df0070f 7df5470f 7df04dab 7df50d0f  }...}.G.}.M.}...
 0b40 d0f080ab 04e041f5 0d0fd0f0 70ab01e0  ......A.....p...
 0b50 12f70d0f d0f040ab 02e023f6 0d0fd1f0  ......@...#.....
 0b60 c1ab0000 13e030f5 0d0fd1f0 c1ab0000  ......0.........
 0b70 14e040f5 3cac0d0f d0f0c0ab 01e010f0  ..@.<...........
 0b80 01e00d0f d0f070ab 02e020f4 10e102e0  ......p... .....
 0b90 0d0fd0f0 40ab03e0 30f201e0 040141a0  ....@...0.....A.
 0ba0 000101a2 0d0fd0f0 c0ab03e0 30f020a1  ............0. .
 0bb0 14e004e8 40e0f100 10e503e0 0d0fd0f0  ....@...........
 0bc0 80ab04e0 40f001e0 00100020 80a12020  ....@...... ..  
 0bd0 80a1f02d 00ee0d0f d1f0c1ab 0d0fd0f0  ...-............
 0be0 c0ab02e0 20f010a8 13e030f5 0d0fd0f0  .... .....0.....
 0bf0 c0ab04e0 40f03038 bf8f470f 7df0cda8  ....@.08..G.}...
 0c00 7df5070f 0d4c7df5 0e4c0ef8 fe5f070f  }....L}..L..._..
 0c10 7df0fd5f 470f7df0 070f7df5 470f7df0  }.._G.}...}.G.}.
 0c20 0dab7df5 0d0fd0f0 80ab04e0 41f50d0f  ..}.........A...
 0c30 d0f070ab 01e012f7 0d0fd0f0 00ab02e0  ..p.............
 0c40 23f50d0f d1f0c1ab 000013e0 30f50d0f  #...........0...
 0c50 d1f0c1ab 000014e0 40f536ac 0d0fd0f0  ........@.6.....
 0c60 c0ab01e0 10f001e0 0d0fd0f0 70ab02e0  ............p...
 0c70 20f410e1 02e00d0f d0f0c0ab 03e030f0   .............0.
 0c80 01e021a1 0d0fd0f0 00ab04e0 40f010a2  ..!.........@...
 0c90 f10010e5 03e00d0f d0f080ab 04e040f0  ..............@.
 0ca0 01e00010 002080a1 202080a1 f02d00ee  ..... ..  ...-..
 0cb0 0d0fd1f0 c1ab0d0f d0f0c0ab 02e020f0  .............. .
 0cc0 10a813e0 30f50d0f d0f0c0ab 04e040f0  ....0.........@.
 0cd0 7038c58f 470f7df0 06016de1 7df5070f  p8..G.}...m.}...
 0ce0 0d4c7df5 0e4c0ef8 070f7df0 fd5f470f  .L}..L....}.._G.
 0cf0 7df0070f 7df5470f 7df04dab 7df50d0f  }...}.G.}.M.}...
 0d00 d0f080ab 03e031f5 0d0fd0f0 70ab01e0  ......1.....p...
 0d10 12f70d0f d0f080ab 02e020f0 03e030f0  .......... ...0.
 0d20 01e061a8 0d0fd0f0 c0ab02e0 21f50d0f  ..a.........!...
 0d30 d0f070ab 03e030f4 f10310e5 01e0000c  ..p...0.........
 0d40 10e601e0 0d0fd0f0 c0ab02e0 20f003e0  ............ ...
 0d50 31f70d0f d0f080ab 01e010f0 02e020f0  1............. .
 0d60 01e071a8 0d0fd0f0 c0ab03e0 31f50d0f  ..q.........1...
 0d70 d0f0c0ab 01e010f0 02e020f4 830130a0  .......... ...0.
 0d80 810110a2 470f7df0 cda87df5 070f0d4c  ....G.}...}....L
 0d90 7df50ef8 070f7df0 fd5f470f 7df0070f  }.....}.._G.}...
 0da0 7df5470f 7df08dab 7df50d0f d0f0c0ab  }.G.}...}.......
 0db0 04e041f5 0d0fd0f0 b0ab01e0 12f70d0f  ..A.............
 0dc0 d0f0a0ab 04e043f7 470f7df0 8da87df5  ......C.G.}...}.
 0dd0 070f0d4c 7df50ef8 02b8119c 01b810d0  ...L}...........
 0de0 0e9c2de0 f2b71281 fe8f0000 d2b3079c  ..-.............
 0df0 10a112b4 21c31088 12a3f9af 0ef802b8  ....!...........
 0e00 0e9c01b8 10d00b9c 2de0f2b7 1281fe8f  ........-.......
 0e10 d2b3059c 12b421c3 12a3fbaf 10e00ef8  ......!.........
 0e20 15e003b8 0b9c0400 51e041e1 20e040e1  ........Q.A. .@.
 0e30 00f410f7 14a834b0 f88f50e0 0ef810e0  ......4...P.....
 0e40 03b8079c 14e013e1 42f714a8 34b0fd8f  ........B...4...
 0e50 0ef810f3 00b8089c 12e012a8 20f300b8  ............ ...
 0e60 fd8f20e0 10e30ef8 00feffaf 80080202  .. .............
 0e70 02f790ab 00f420b6 069c00fe 100800f4  ...... .........
 0e80 20b6fc8f 100802f4 00f450b6 0d8c2200   .........P...".
 0e90 100800f4 30b60c8c 600800f2 80088102  ....0...`.......
 0ea0 01f73200 0dac62a3 140042e5 f2af6008  ..2...b...B...`.
 0eb0 03f220a8 840204f7 02b8028c 13f720e0  .. ........... .
 0ec0 0ef80000 0ef8f95f fe5f070f 7df0fd5f  ......._._..}.._
 0ed0 470f7df0 070f7df5 0d0fd0f0 c0a807f0  G.}...}.........
 0ee0 03e083a8 31f0f400 41e516e0 04e044a8  ....1...A.....D.
 0ef0 42f002b8 609c3508 090059f7 07f530f0  B...`.5...Y...0.
 0f00 090f90e5 10e630f5 42f533f0 010331e5  ......0.B.3...1.
 0f10 01b8478c 63b63c9c f30063e5 33b6319c  ..G.c.<...c.3.1.
 0f20 23b6289c 13b61f9c 03b6189c 310810f4  #.(.........1...
 0f30 40a410f7 71e00010 002080a1 602080a1  @...q.... ..` ..
 0f40 c02e00ee 02e042a1 440140a0 850150a2  ......B.D.@...P.
 0f50 510810f7 400802f7 2eac3108 10f400a4  Q...@.....1.....
 0f60 10f7e5af 310810f4 10a410f7 03b6df8f  ....1...........
 0f70 f5af3108 10f420a4 10f713b6 d68ff3af  ..1... .........
 0f80 310810f4 30a410f7 23b6cd8f f3af3108  1...0...#.....1.
 0f90 10f450a4 10f7f300 63e533b6 c28ff1af  ..P.....c.3.....
 0fa0 50f40808 80e650f7 01b9b58f 50f460a4  P.....P.....P.`.
 0fb0 50f7b1af 070f0d4c 7df50e4c 094c0ef8  P......L}..L.L..
 0fc0 00000ef8 f95ffa5f fb5ffc5f fe5f070f  ....._._._._._..
 0fd0 7df0fd5f 470f7df0 070f7df5 470f7df0  }.._G.}...}.G.}.
 0fe0 cdab7df5 2ce03be0 0338178c 09000d0f  ..}.,.;..8......
 0ff0 daf0faab a1e00210 022082a1 722082a1  ......... ..r ..
 1000 622302ee 00b80a8c 90e0c0e1 a1f401f7  b#..............
 1010 19a89bb0 f08f02ac 090090e0 470f7df0  ............G.}.
 1020 4da87df5 070f0d4c 7df50e4c 0c4c0b4c  M.}....L}..L.L.L
 1030 0a4c094c 0ef8f95f fa5ffb5f fc5ffe5f  .L.L..._._._._._
 1040 070f7df0 fd5f470f 7df0070f 7df5470f  ..}.._G.}...}.G.
 1050 7df0cdab 7df52be0 3ce00338 1f8c0a00  }...}.+.<..8....
 1060 0d0fd9f0 f9ab91e0 02100220 82a17220  ........... ..r 
 1070 82a16223 02ee00b8 0d8c91f4 90f3d0b8  ..b#............
 1080 079ca0b8 079cb0e0 a0e101f7 1aa8cab1  ................
 1090 eb9fabe1 0200b2f7 02ac0a00 a0e0470f  ..............G.
 10a0 7df04da8 7df5070f 0d4c7df5 0e4c0c4c  }.M.}....L}..L.L
 10b0 0b4c0a4c 094c0ef8 0338278c 040040e0  .L.L.L...8'...@.
 10c0 20e101f4 100800f4 10b6069c 00fe1008   ...............
 10d0 00f410b6 fc8f10e0 850150a0 50e86108  ..........P.P.a.
 10e0 10f68008 810101f7 90ab00f4 10b6069c  ................
 10f0 00fe1008 00f410b6 fc8f8008 050005f7  ................
 1100 14a843b0 dd8f02ac 030030e0 0ef8      ..C.......0...  
Contents of section .rodata:
 0000 0a0d4861 6c6c6f20 57656c74 210a0d00  ..Hallo Welt!...
 0010 00000000 00000000 00000000 00000000  ................
 0020 20507573 68627574 746f6e20 31200000   Pushbutton 1 ..
 0030 00000000 00000000 00000000 00000000  ................
 0040 20507573 68627574 746f6e20 32200000   Pushbutton 2 ..
 0050 00000000 00000000 00000000 00000000  ................
 0060 20507573 68627574 746f6e20 33200000   Pushbutton 3 ..
 0070 00000000 00000000 00000000 00000000  ................
 0080 0d000000 00000000 00000000 00000000  ................
 0090 00000000 00000000 00000000 00000000  ................

Disassembly of section .text:

00000000 <.text>:
       0:	05 10       	ldhi r5,0
       2:	05 20       	ldliu r5,0x0
       4:	85 a1       	sli r5,0x8
       6:	05 20       	ldliu r5,0x0
       8:	85 a1       	sli r5,0x8
       a:	05 2a       	ldliu r5,0xa0
       c:	06 10       	ldhi r6,0
       e:	06 20       	ldliu r6,0x0
      10:	86 a1       	sli r6,0x8
      12:	06 20       	ldliu r6,0x0
      14:	86 a1       	sli r6,0x8
      16:	c6 2a       	ldliu r6,0xac
      18:	65 b0       	cmp_eq r5,r6
      1a:	06 9c       	jmpi_ct 6
      1c:	07 00       	ldli r7,0
      1e:	57 f5       	stw r7,r5
      20:	45 a8       	addi r5,4
      22:	65 b1       	cmp_lt r5,r6
      24:	fd 9f       	jmpi_ct -3
      26:	00 10       	ldhi r0,0
      28:	00 20       	ldliu r0,0x0
      2a:	01 10       	ldhi r1,0
      2c:	01 20       	ldliu r1,0x0
      2e:	02 10       	ldhi r2,0
      30:	02 20       	ldliu r2,0x0
      32:	03 10       	ldhi r3,0
      34:	03 20       	ldliu r3,0x0
      36:	04 10       	ldhi r4,0
      38:	04 20       	ldliu r4,0x0
      3a:	05 10       	ldhi r5,0
      3c:	05 20       	ldliu r5,0x0
      3e:	06 10       	ldhi r6,0
      40:	06 20       	ldliu r6,0x0
      42:	07 10       	ldhi r7,0
      44:	07 20       	ldliu r7,0x0
      46:	08 10       	ldhi r8,0
      48:	08 20       	ldliu r8,0x0
      4a:	09 10       	ldhi r9,0
      4c:	09 20       	ldliu r9,0x0
      4e:	0a 10       	ldhi r10,0
      50:	0a 20       	ldliu r10,0x0
      52:	0b 10       	ldhi r11,0
      54:	0b 20       	ldliu r11,0x0
      56:	0c 10       	ldhi r12,0
      58:	0c 20       	ldliu r12,0x0
      5a:	0d 10       	ldhi r13,0
      5c:	0d 20       	ldliu r13,0x0
      5e:	0e 10       	ldhi r14,0
      60:	0e 20       	ldliu r14,0x0
      62:	0f 10       	ldhi r15,0
      64:	0f 20       	ldliu r15,0x0
      66:	87 0e       	ldli r7,-24
      68:	0d 10       	ldhi r13,0
      6a:	0d 20       	ldliu r13,0x0
      6c:	7d f5       	stw r13,r7
      6e:	c7 0e       	ldli r7,-20
      70:	0d 10       	ldhi r13,0
      72:	0d 20       	ldliu r13,0x0
      74:	7d f5       	stw r13,r7
      76:	07 0f       	ldli r7,-16
      78:	0d 10       	ldhi r13,0
      7a:	0d 20       	ldliu r13,0x0
      7c:	7d f5       	stw r13,r7
      7e:	47 0f       	ldli r7,-12
      80:	0d 10       	ldhi r13,0
      82:	0d 20       	ldliu r13,0x0
      84:	7d f5       	stw r13,r7
      86:	0d 10       	ldhi r13,0
      88:	2d 20       	ldliu r13,0x2
      8a:	8d a1       	sli r13,0x8
      8c:	0d 20       	ldliu r13,0x0
      8e:	8d a1       	sli r13,0x8
      90:	0d 20       	ldliu r13,0x0
      92:	07 0f       	ldli r7,-16
      94:	7d f5       	stw r13,r7
      96:	47 0f       	ldli r7,-12
      98:	7d f5       	stw r13,r7
      9a:	0d 10       	ldhi r13,0
      9c:	0d 20       	ldliu r13,0x0
      9e:	8d a1       	sli r13,0x8
      a0:	0d 20       	ldliu r13,0x0
      a2:	8d a1       	sli r13,0x8
      a4:	cd 25       	ldliu r13,0x5c
      a6:	0d ee       	jsr r13
      a8:	01 e0       	mov r1,r0
      aa:	0d 10       	ldhi r13,0
      ac:	0d 20       	ldliu r13,0x0
      ae:	8d a1       	sli r13,0x8
      b0:	7d 20       	ldliu r13,0x7
      b2:	8d a1       	sli r13,0x8
      b4:	4d 23       	ldliu r13,0x34
      b6:	0d ee       	jsr r13
      b8:	f9 5f       	stfpz_dec r9,-1
      ba:	fa 5f       	stfpz_dec r10,-1
      bc:	fb 5f       	stfpz_dec r11,-1
      be:	fc 5f       	stfpz_dec r12,-1
      c0:	fe 5f       	stfpz_dec r14,-1
      c2:	07 0f       	ldli r7,-16
      c4:	7d f0       	ldw r13,r7
      c6:	fd 5f       	stfpz_dec r13,-1
      c8:	47 0f       	ldli r7,-12
      ca:	7d f0       	ldw r13,r7
      cc:	07 0f       	ldli r7,-16
      ce:	7d f5       	stw r13,r7
      d0:	47 0f       	ldli r7,-12
      d2:	7d f0       	ldw r13,r7
      d4:	c6 04       	ldli r6,76
      d6:	f6 1f       	ldhi r6,-1
      d8:	6d e1       	add r13,r6
      da:	7d f5       	stw r13,r7
      dc:	0d 0f       	ldli r13,-16
      de:	db f0       	ldw r11,r13
      e0:	40 0d       	ldli r0,-44
      e2:	0b e1       	add r11,r0
      e4:	09 10       	ldhi r9,0
      e6:	09 20       	ldliu r9,0x0
      e8:	89 a1       	sli r9,0x8
      ea:	79 20       	ldliu r9,0x7
      ec:	89 a1       	sli r9,0x8
      ee:	09 21       	ldliu r9,0x10
      f0:	b1 e0       	mov r1,r11
      f2:	02 10       	ldhi r2,0
      f4:	02 20       	ldliu r2,0x0
      f6:	82 a1       	sli r2,0x8
      f8:	02 20       	ldliu r2,0x0
      fa:	82 a1       	sli r2,0x8
      fc:	02 20       	ldliu r2,0x0
      fe:	03 01       	ldli r3,16
     100:	09 ee       	jsr r9
     102:	0d 0f       	ldli r13,-16
     104:	d0 f0       	ldw r0,r13
     106:	40 aa       	addi r0,-28
     108:	02 00       	ldli r2,0
     10a:	02 f5       	stw r2,r0
     10c:	40 a8       	addi r0,4
     10e:	02 f5       	stw r2,r0
     110:	40 a8       	addi r0,4
     112:	02 f5       	stw r2,r0
     114:	40 a8       	addi r0,4
     116:	02 f5       	stw r2,r0
     118:	0d 0f       	ldli r13,-16
     11a:	d1 f0       	ldw r1,r13
     11c:	40 0b       	ldli r0,-76
     11e:	01 e1       	add r1,r0
     120:	02 10       	ldhi r2,0
     122:	02 20       	ldliu r2,0x0
     124:	82 a1       	sli r2,0x8
     126:	02 20       	ldliu r2,0x0
     128:	82 a1       	sli r2,0x8
     12a:	02 22       	ldliu r2,0x20
     12c:	f3 00       	ldli r3,15
     12e:	09 ee       	jsr r9
     130:	0a 10       	ldhi r10,0
     132:	0a 20       	ldliu r10,0x0
     134:	8a a1       	sli r10,0x8
     136:	7a 20       	ldliu r10,0x7
     138:	8a a1       	sli r10,0x8
     13a:	fa 21       	ldliu r10,0x1f
     13c:	41 0b       	ldli r1,-76
     13e:	0d 0f       	ldli r13,-16
     140:	dd f0       	ldw r13,r13
     142:	d1 e1       	add r1,r13
     144:	f1 a8       	addi r1,15
     146:	02 00       	ldli r2,0
     148:	13 01       	ldli r3,17
     14a:	0a ee       	jsr r10
     14c:	0d 0f       	ldli r13,-16
     14e:	d1 f0       	ldw r1,r13
     150:	42 09       	ldli r2,-108
     152:	21 e1       	add r1,r2
     154:	02 10       	ldhi r2,0
     156:	02 20       	ldliu r2,0x0
     158:	82 a1       	sli r2,0x8
     15a:	02 20       	ldliu r2,0x0
     15c:	82 a1       	sli r2,0x8
     15e:	02 24       	ldliu r2,0x40
     160:	f3 00       	ldli r3,15
     162:	09 ee       	jsr r9
     164:	41 09       	ldli r1,-108
     166:	0d 0f       	ldli r13,-16
     168:	dd f0       	ldw r13,r13
     16a:	d1 e1       	add r1,r13
     16c:	f1 a8       	addi r1,15
     16e:	02 00       	ldli r2,0
     170:	13 01       	ldli r3,17
     172:	0a ee       	jsr r10
     174:	0d 0f       	ldli r13,-16
     176:	d1 f0       	ldw r1,r13
     178:	43 07       	ldli r3,116
     17a:	f3 1f       	ldhi r3,-1
     17c:	31 e1       	add r1,r3
     17e:	02 10       	ldhi r2,0
     180:	02 20       	ldliu r2,0x0
     182:	82 a1       	sli r2,0x8
     184:	02 20       	ldliu r2,0x0
     186:	82 a1       	sli r2,0x8
     188:	02 26       	ldliu r2,0x60
     18a:	f3 00       	ldli r3,15
     18c:	09 ee       	jsr r9
     18e:	41 07       	ldli r1,116
     190:	f1 1f       	ldhi r1,-1
     192:	0d 0f       	ldli r13,-16
     194:	dd f0       	ldw r13,r13
     196:	d1 e1       	add r1,r13
     198:	f1 a8       	addi r1,15
     19a:	02 00       	ldli r2,0
     19c:	13 01       	ldli r3,17
     19e:	0a ee       	jsr r10
     1a0:	0d 0f       	ldli r13,-16
     1a2:	d0 f0       	ldw r0,r13
     1a4:	44 05       	ldli r4,84
     1a6:	f4 1f       	ldhi r4,-1
     1a8:	40 e1       	add r0,r4
     1aa:	84 ab       	addi r4,-8
     1ac:	0d 0f       	ldli r13,-16
     1ae:	dd f0       	ldw r13,r13
     1b0:	d4 e1       	add r4,r13
     1b2:	40 f5       	stw r0,r4
     1b4:	00 10       	ldhi r0,0
     1b6:	00 20       	ldliu r0,0x0
     1b8:	80 a1       	sli r0,0x8
     1ba:	00 20       	ldliu r0,0x0
     1bc:	80 a1       	sli r0,0x8
     1be:	00 28       	ldliu r0,0x80
     1c0:	02 f4       	ldbu r2,r0
     1c2:	41 f0       	ldw r1,r4
     1c4:	12 f7       	stb r2,r1
     1c6:	11 a8       	addi r1,1
     1c8:	10 a8       	addi r0,1
     1ca:	00 f4       	ldbu r0,r0
     1cc:	10 f7       	stb r0,r1
     1ce:	f1 ab       	addi r1,-1
     1d0:	41 f5       	stw r1,r4
     1d2:	21 a8       	addi r1,2
     1d4:	02 00       	ldli r2,0
     1d6:	e3 01       	ldli r3,30
     1d8:	0a ee       	jsr r10
     1da:	23 10       	ldhi r3,2
     1dc:	a3 2f       	ldliu r3,0xfa
     1de:	83 a1       	sli r3,0x8
     1e0:	03 2f       	ldliu r3,0xf0
     1e2:	83 a1       	sli r3,0x8
     1e4:	03 28       	ldliu r3,0x80
     1e6:	d3 7b       	stfpy r3,-3
     1e8:	04 10       	ldhi r4,0
     1ea:	14 20       	ldliu r4,0x1
     1ec:	84 a1       	sli r4,0x8
     1ee:	24 2c       	ldliu r4,0xc2
     1f0:	84 a1       	sli r4,0x8
     1f2:	04 20       	ldliu r4,0x0
     1f4:	e4 7b       	stfpy r4,-2
     1f6:	0d 0f       	ldli r13,-16
     1f8:	d0 f0       	ldw r0,r13
     1fa:	c0 ab       	addi r0,-4
     1fc:	01 f0       	ldw r1,r0
     1fe:	03 0c       	ldli r3,-64
     200:	31 e5       	and r1,r3
     202:	74 00       	ldli r4,7
     204:	41 e6       	or r1,r4
     206:	51 a4       	bset r1,0x5
     208:	61 a6       	bclr r1,0x6
     20a:	01 f5       	stw r1,r0
     20c:	4d 0f       	ldli r13,-12
     20e:	d0 f0       	ldw r0,r13
     210:	40 ab       	addi r0,-12
     212:	4d 0f       	ldli r13,-12
     214:	d0 f5       	stw r0,r13
     216:	22 10       	ldhi r2,2
     218:	a2 2f       	ldliu r2,0xfa
     21a:	82 a1       	sli r2,0x8
     21c:	02 2f       	ldliu r2,0xf0
     21e:	82 a1       	sli r2,0x8
     220:	02 28       	ldliu r2,0x80
     222:	02 7c       	stfpz r2,0
     224:	40 a8       	addi r0,4
     226:	04 10       	ldhi r4,0
     228:	14 20       	ldliu r4,0x1
     22a:	84 a1       	sli r4,0x8
     22c:	24 2c       	ldliu r4,0xc2
     22e:	84 a1       	sli r4,0x8
     230:	04 20       	ldliu r4,0x0
     232:	04 f5       	stw r4,r0
     234:	40 a8       	addi r0,4
     236:	01 f5       	stw r1,r0
     238:	00 10       	ldhi r0,0
     23a:	00 20       	ldliu r0,0x0
     23c:	80 a1       	sli r0,0x8
     23e:	70 20       	ldliu r0,0x7
     240:	80 a1       	sli r0,0x8
     242:	30 26       	ldliu r0,0x63
     244:	00 ee       	jsr r0
     246:	4d 0f       	ldli r13,-12
     248:	d0 f0       	ldw r0,r13
     24a:	c0 a8       	addi r0,12
     24c:	4d 0f       	ldli r13,-12
     24e:	d0 f5       	stw r0,r13
     250:	01 10       	ldhi r1,0
     252:	01 20       	ldliu r1,0x0
     254:	81 a1       	sli r1,0x8
     256:	01 20       	ldliu r1,0x0
     258:	81 a1       	sli r1,0x8
     25a:	01 2a       	ldliu r1,0xa0
     25c:	02 0e       	ldli r2,-32
     25e:	e2 1f       	ldhi r2,-2
     260:	83 00       	ldli r3,8
     262:	00 10       	ldhi r0,0
     264:	00 20       	ldliu r0,0x0
     266:	80 a1       	sli r0,0x8
     268:	20 20       	ldliu r0,0x2
     26a:	80 a1       	sli r0,0x8
     26c:	40 25       	ldliu r0,0x54
     26e:	00 ee       	jsr r0
     270:	01 10       	ldhi r1,0
     272:	01 20       	ldliu r1,0x0
     274:	81 a1       	sli r1,0x8
     276:	01 20       	ldliu r1,0x0
     278:	81 a1       	sli r1,0x8
     27a:	01 2a       	ldliu r1,0xa0
     27c:	02 00       	ldli r2,0
     27e:	23 04       	ldli r3,66
     280:	00 10       	ldhi r0,0
     282:	00 20       	ldliu r0,0x0
     284:	80 a1       	sli r0,0x8
     286:	60 20       	ldliu r0,0x6
     288:	80 a1       	sli r0,0x8
     28a:	60 20       	ldliu r0,0x6
     28c:	00 ee       	jsr r0
     28e:	b1 e0       	mov r1,r11
     290:	02 10       	ldhi r2,0
     292:	02 20       	ldliu r2,0x0
     294:	82 a1       	sli r2,0x8
     296:	72 20       	ldliu r2,0x7
     298:	82 a1       	sli r2,0x8
     29a:	92 22       	ldliu r2,0x29
     29c:	02 ee       	jsr r2
     29e:	01 00       	ldli r1,0
     2a0:	b2 e0       	mov r2,r11
     2a2:	03 e0       	mov r3,r0
     2a4:	04 10       	ldhi r4,0
     2a6:	04 20       	ldliu r4,0x0
     2a8:	84 a1       	sli r4,0x8
     2aa:	84 20       	ldliu r4,0x8
     2ac:	84 a1       	sli r4,0x8
     2ae:	c4 25       	ldliu r4,0x5c
     2b0:	04 ee       	jsr r4
     2b2:	09 00       	ldli r9,0
     2b4:	01 10       	ldhi r1,0
     2b6:	01 20       	ldliu r1,0x0
     2b8:	81 a1       	sli r1,0x8
     2ba:	21 20       	ldliu r1,0x2
     2bc:	81 a1       	sli r1,0x8
     2be:	51 22       	ldliu r1,0x25
     2c0:	01 ee       	jsr r1
     2c2:	02 05       	ldli r2,80
     2c4:	f2 1f       	ldhi r2,-1
     2c6:	0d 0f       	ldli r13,-16
     2c8:	dd f0       	ldw r13,r13
     2ca:	d2 e1       	add r2,r13
     2cc:	20 f5       	stw r0,r2
     2ce:	09 b0       	cmp_eq r9,r0
     2d0:	13 9c       	jmpi_ct 19
     2d2:	20 b6       	btest r0,0x2
     2d4:	a0 9c       	jmpi_ct 160
     2d6:	00 05       	ldli r0,80
     2d8:	f0 1f       	ldhi r0,-1
     2da:	0d 0f       	ldli r13,-16
     2dc:	dd f0       	ldw r13,r13
     2de:	d0 e1       	add r0,r13
     2e0:	00 f0       	ldw r0,r0
     2e2:	10 b6       	btest r0,0x1
     2e4:	7f 9c       	jmpi_ct 127
     2e6:	00 05       	ldli r0,80
     2e8:	f0 1f       	ldhi r0,-1
     2ea:	0d 0f       	ldli r13,-16
     2ec:	dd f0       	ldw r13,r13
     2ee:	d0 e1       	add r0,r13
     2f0:	00 f0       	ldw r0,r0
     2f2:	00 b6       	btest r0,0x0
     2f4:	5e 9c       	jmpi_ct 94
     2f6:	0b 00       	ldli r11,0
     2f8:	0a 00       	ldli r10,0
     2fa:	3c 04       	ldli r12,67
     2fc:	ec 1f       	ldhi r12,-2
     2fe:	a9 e0       	mov r9,r10
     300:	80 01       	ldli r0,24
     302:	09 a0       	sl r9,r0
     304:	09 a2       	sr r9,r0
     306:	91 e0       	mov r1,r9
     308:	02 10       	ldhi r2,0
     30a:	02 20       	ldliu r2,0x0
     30c:	82 a1       	sli r2,0x8
     30e:	22 20       	ldliu r2,0x2
     310:	82 a1       	sli r2,0x8
     312:	32 23       	ldliu r2,0x33
     314:	02 ee       	jsr r2
     316:	83 01       	ldli r3,24
     318:	30 a0       	sl r0,r3
     31a:	30 a2       	sr r0,r3
     31c:	10 b8       	cmpi_eq r0,1
     31e:	41 9c       	jmpi_ct 65
     320:	09 b8       	cmpi_eq r9,0
     322:	05 8c       	jmpi_cf 5
     324:	02 00       	ldli r2,0
     326:	c2 f5       	stw r2,r12
     328:	1a a8       	addi r10,1
     32a:	ea af       	jmpi -22
     32c:	a0 e0       	mov r0,r10
     32e:	10 a8       	addi r0,1
     330:	0a e0       	mov r10,r0
     332:	83 01       	ldli r3,24
     334:	30 a0       	sl r0,r3
     336:	30 a2       	sr r0,r3
     338:	1d 01       	ldli r13,17
     33a:	d0 b4       	cmpu_gt r0,r13
     33c:	e1 8f       	jmpi_cf -31
     33e:	c4 04       	ldli r4,76
     340:	f4 1f       	ldhi r4,-1
     342:	0d 0f       	ldli r13,-16
     344:	dd f0       	ldw r13,r13
     346:	d4 e1       	add r4,r13
     348:	41 f0       	ldw r1,r4
     34a:	02 10       	ldhi r2,0
     34c:	02 20       	ldliu r2,0x0
     34e:	82 a1       	sli r2,0x8
     350:	72 20       	ldliu r2,0x7
     352:	82 a1       	sli r2,0x8
     354:	92 22       	ldliu r2,0x29
     356:	02 ee       	jsr r2
     358:	01 00       	ldli r1,0
     35a:	c3 04       	ldli r3,76
     35c:	f3 1f       	ldhi r3,-1
     35e:	0d 0f       	ldli r13,-16
     360:	dd f0       	ldw r13,r13
     362:	d3 e1       	add r3,r13
     364:	32 f0       	ldw r2,r3
     366:	03 e0       	mov r3,r0
     368:	04 10       	ldhi r4,0
     36a:	04 20       	ldliu r4,0x0
     36c:	84 a1       	sli r4,0x8
     36e:	84 20       	ldliu r4,0x8
     370:	84 a1       	sli r4,0x8
     372:	c4 25       	ldliu r4,0x5c
     374:	04 ee       	jsr r4
     376:	31 10       	ldhi r1,3
     378:	41 21       	ldliu r1,0x14
     37a:	81 a1       	sli r1,0x8
     37c:	01 20       	ldliu r1,0x0
     37e:	81 a1       	sli r1,0x8
     380:	01 20       	ldliu r1,0x0
     382:	b1 e6       	or r1,r11
     384:	00 10       	ldhi r0,0
     386:	00 20       	ldliu r0,0x0
     388:	80 a1       	sli r0,0x8
     38a:	20 20       	ldliu r0,0x2
     38c:	80 a1       	sli r0,0x8
     38e:	70 24       	ldliu r0,0x47
     390:	00 ee       	jsr r0
     392:	01 05       	ldli r1,80
     394:	f1 1f       	ldhi r1,-1
     396:	0d 0f       	ldli r13,-16
     398:	dd f0       	ldw r13,r13
     39a:	d1 e1       	add r1,r13
     39c:	19 f0       	ldw r9,r1
     39e:	8b af       	jmpi -117
     3a0:	90 a0       	sl r0,r9
     3a2:	0b e6       	or r11,r0
     3a4:	09 b8       	cmpi_eq r9,0
     3a6:	c3 8f       	jmpi_cf -61
     3a8:	10 00       	ldli r0,1
     3aa:	c0 f5       	stw r0,r12
     3ac:	1a a8       	addi r10,1
     3ae:	a8 af       	jmpi -88
     3b0:	0d 0f       	ldli r13,-16
     3b2:	d1 f0       	ldw r1,r13
     3b4:	42 0b       	ldli r2,-76
     3b6:	21 e1       	add r1,r2
     3b8:	03 10       	ldhi r3,0
     3ba:	03 20       	ldliu r3,0x0
     3bc:	83 a1       	sli r3,0x8
     3be:	73 20       	ldliu r3,0x7
     3c0:	83 a1       	sli r3,0x8
     3c2:	93 22       	ldliu r3,0x29
     3c4:	03 ee       	jsr r3
     3c6:	01 00       	ldli r1,0
     3c8:	0d 0f       	ldli r13,-16
     3ca:	d2 f0       	ldw r2,r13
     3cc:	44 0b       	ldli r4,-76
     3ce:	42 e1       	add r2,r4
     3d0:	03 e0       	mov r3,r0
     3d2:	04 10       	ldhi r4,0
     3d4:	04 20       	ldliu r4,0x0
     3d6:	84 a1       	sli r4,0x8
     3d8:	84 20       	ldliu r4,0x8
     3da:	84 a1       	sli r4,0x8
     3dc:	c4 25       	ldliu r4,0x5c
     3de:	04 ee       	jsr r4
     3e0:	8b af       	jmpi -117
     3e2:	0d 0f       	ldli r13,-16
     3e4:	d1 f0       	ldw r1,r13
     3e6:	42 09       	ldli r2,-108
     3e8:	21 e1       	add r1,r2
     3ea:	03 10       	ldhi r3,0
     3ec:	03 20       	ldliu r3,0x0
     3ee:	83 a1       	sli r3,0x8
     3f0:	73 20       	ldliu r3,0x7
     3f2:	83 a1       	sli r3,0x8
     3f4:	93 22       	ldliu r3,0x29
     3f6:	03 ee       	jsr r3
     3f8:	01 00       	ldli r1,0
     3fa:	0d 0f       	ldli r13,-16
     3fc:	d2 f0       	ldw r2,r13
     3fe:	44 09       	ldli r4,-108
     400:	42 e1       	add r2,r4
     402:	03 e0       	mov r3,r0
     404:	04 10       	ldhi r4,0
     406:	04 20       	ldliu r4,0x0
     408:	84 a1       	sli r4,0x8
     40a:	84 20       	ldliu r4,0x8
     40c:	84 a1       	sli r4,0x8
     40e:	c4 25       	ldliu r4,0x5c
     410:	04 ee       	jsr r4
     412:	6a af       	jmpi -150
     414:	0d 0f       	ldli r13,-16
     416:	d1 f0       	ldw r1,r13
     418:	43 07       	ldli r3,116
     41a:	f3 1f       	ldhi r3,-1
     41c:	31 e1       	add r1,r3
     41e:	04 10       	ldhi r4,0
     420:	04 20       	ldliu r4,0x0
     422:	84 a1       	sli r4,0x8
     424:	74 20       	ldliu r4,0x7
     426:	84 a1       	sli r4,0x8
     428:	94 22       	ldliu r4,0x29
     42a:	04 ee       	jsr r4
     42c:	01 00       	ldli r1,0
     42e:	0d 0f       	ldli r13,-16
     430:	d2 f0       	ldw r2,r13
     432:	43 07       	ldli r3,116
     434:	f3 1f       	ldhi r3,-1
     436:	32 e1       	add r2,r3
     438:	03 e0       	mov r3,r0
     43a:	04 10       	ldhi r4,0
     43c:	04 20       	ldliu r4,0x0
     43e:	84 a1       	sli r4,0x8
     440:	84 20       	ldliu r4,0x8
     442:	84 a1       	sli r4,0x8
     444:	c4 25       	ldliu r4,0x5c
     446:	04 ee       	jsr r4
     448:	47 af       	jmpi -185
     44a:	42 08       	ldli r2,-124
     44c:	e2 1f       	ldhi r2,-2
     44e:	21 f0       	ldw r1,r2
     450:	01 ec       	not r1
     452:	13 00       	ldli r3,1
     454:	31 e5       	and r1,r3
     456:	20 f0       	ldw r0,r2
     458:	10 b6       	btest r0,0x1
     45a:	11 84       	bset_cf r1,0x1
     45c:	20 f0       	ldw r0,r2
     45e:	20 b6       	btest r0,0x2
     460:	21 84       	bset_cf r1,0x2
     462:	10 e0       	mov r0,r1
     464:	0e f8       	rts
     466:	40 08       	ldli r0,-124
     468:	e0 1f       	ldhi r0,-2
     46a:	02 f0       	ldw r2,r0
     46c:	03 00       	ldli r3,0
     46e:	32 e9       	srai r2,0x3
     470:	00 10       	ldhi r0,0
     472:	30 20       	ldliu r0,0x3
     474:	80 a1       	sli r0,0x8
     476:	f0 2f       	ldliu r0,0xff
     478:	80 a1       	sli r0,0x8
     47a:	f0 2f       	ldliu r0,0xff
     47c:	02 e5       	and r2,r0
     47e:	10 00       	ldli r0,1
     480:	10 a0       	sl r0,r1
     482:	02 e5       	and r2,r0
     484:	02 b8       	cmpi_eq r2,0
     486:	02 9c       	jmpi_ct 2
     488:	13 00       	ldli r3,1
     48a:	30 e0       	mov r0,r3
     48c:	0e f8       	rts
     48e:	12 e0       	mov r2,r1
     490:	50 01       	ldli r0,21
     492:	02 a0       	sl r2,r0
     494:	40 08       	ldli r0,-124
     496:	e0 1f       	ldhi r0,-2
     498:	02 f5       	stw r2,r0
     49a:	51 a1       	sli r1,0x5
     49c:	00 01       	ldli r0,16
     49e:	01 a2       	sr r1,r0
     4a0:	80 08       	ldli r0,-120
     4a2:	e0 1f       	ldhi r0,-2
     4a4:	01 f5       	stw r1,r0
     4a6:	0e f8       	rts
     4a8:	07 0f       	ldli r7,-16
     4aa:	7d f0       	ldw r13,r7
     4ac:	fd 5f       	stfpz_dec r13,-1
     4ae:	47 0f       	ldli r7,-12
     4b0:	7d f0       	ldw r13,r7
     4b2:	07 0f       	ldli r7,-16
     4b4:	7d f5       	stw r13,r7
     4b6:	47 0f       	ldli r7,-12
     4b8:	7d f0       	ldw r13,r7
     4ba:	4d ab       	addi r13,-12
     4bc:	7d f5       	stw r13,r7
     4be:	0d 0f       	ldli r13,-16
     4c0:	d0 f0       	ldw r0,r13
     4c2:	c0 ab       	addi r0,-4
     4c4:	04 e0       	mov r4,r0
     4c6:	41 f5       	stw r1,r4
     4c8:	0d 0f       	ldli r13,-16
     4ca:	d0 f0       	ldw r0,r13
     4cc:	80 ab       	addi r0,-8
     4ce:	01 e0       	mov r1,r0
     4d0:	12 f5       	stw r2,r1
     4d2:	0d 0f       	ldli r13,-16
     4d4:	d0 f0       	ldw r0,r13
     4d6:	70 ab       	addi r0,-9
     4d8:	02 e0       	mov r2,r0
     4da:	23 f7       	stb r3,r2
     4dc:	0d 0f       	ldli r13,-16
     4de:	d0 f0       	ldw r0,r13
     4e0:	c0 ab       	addi r0,-4
     4e2:	04 e0       	mov r4,r0
     4e4:	41 f0       	ldw r1,r4
     4e6:	0d 0f       	ldli r13,-16
     4e8:	d0 f0       	ldw r0,r13
     4ea:	80 ab       	addi r0,-8
     4ec:	02 e0       	mov r2,r0
     4ee:	20 f0       	ldw r0,r2
     4f0:	14 e0       	mov r4,r1
     4f2:	40 f5       	stw r0,r4
     4f4:	0d 0f       	ldli r13,-16
     4f6:	d0 f0       	ldw r0,r13
     4f8:	c0 ab       	addi r0,-4
     4fa:	01 e0       	mov r1,r0
     4fc:	10 f0       	ldw r0,r1
     4fe:	01 e0       	mov r1,r0
     500:	41 a8       	addi r1,4
     502:	0d 0f       	ldli r13,-16
     504:	d0 f0       	ldw r0,r13
     506:	70 ab       	addi r0,-9
     508:	02 e0       	mov r2,r0
     50a:	20 f4       	ldbu r0,r2
     50c:	14 e0       	mov r4,r1
     50e:	40 f7       	stb r0,r4
     510:	47 0f       	ldli r7,-12
     512:	7d f0       	ldw r13,r7
     514:	cd a8       	addi r13,12
     516:	7d f5       	stw r13,r7
     518:	07 0f       	ldli r7,-16
     51a:	0d 4c       	ldfpz_inc r13,0
     51c:	7d f5       	stw r13,r7
     51e:	0e f8       	rts
     520:	07 0f       	ldli r7,-16
     522:	7d f0       	ldw r13,r7
     524:	fd 5f       	stfpz_dec r13,-1
     526:	47 0f       	ldli r7,-12
     528:	7d f0       	ldw r13,r7
     52a:	07 0f       	ldli r7,-16
     52c:	7d f5       	stw r13,r7
     52e:	47 0f       	ldli r7,-12
     530:	7d f0       	ldw r13,r7
     532:	cd ab       	addi r13,-4
     534:	7d f5       	stw r13,r7
     536:	0d 0f       	ldli r13,-16
     538:	d0 f0       	ldw r0,r13
     53a:	c0 ab       	addi r0,-4
     53c:	02 e0       	mov r2,r0
     53e:	21 f5       	stw r1,r2
     540:	47 0f       	ldli r7,-12
     542:	7d f0       	ldw r13,r7
     544:	4d a8       	addi r13,4
     546:	7d f5       	stw r13,r7
     548:	07 0f       	ldli r7,-16
     54a:	0d 4c       	ldfpz_inc r13,0
     54c:	7d f5       	stw r13,r7
     54e:	0e f8       	rts
     550:	07 0f       	ldli r7,-16
     552:	7d f0       	ldw r13,r7
     554:	fd 5f       	stfpz_dec r13,-1
     556:	47 0f       	ldli r7,-12
     558:	7d f0       	ldw r13,r7
     55a:	07 0f       	ldli r7,-16
     55c:	7d f5       	stw r13,r7
     55e:	47 0f       	ldli r7,-12
     560:	7d f0       	ldw r13,r7
     562:	4d ab       	addi r13,-12
     564:	7d f5       	stw r13,r7
     566:	0d 0f       	ldli r13,-16
     568:	d0 f0       	ldw r0,r13
     56a:	80 ab       	addi r0,-8
     56c:	03 e0       	mov r3,r0
     56e:	31 f5       	stw r1,r3
     570:	0d 0f       	ldli r13,-16
     572:	d0 f0       	ldw r0,r13
     574:	60 ab       	addi r0,-10
     576:	01 e0       	mov r1,r0
     578:	12 f6       	sth r2,r1
     57a:	0d 0f       	ldli r13,-16
     57c:	d0 f0       	ldw r0,r13
     57e:	80 ab       	addi r0,-8
     580:	02 e0       	mov r2,r0
     582:	20 f0       	ldw r0,r2
     584:	03 e0       	mov r3,r0
     586:	30 f0       	ldw r0,r3
     588:	01 e0       	mov r1,r0
     58a:	41 a8       	addi r1,4
     58c:	0d 0f       	ldli r13,-16
     58e:	d0 f0       	ldw r0,r13
     590:	c0 ab       	addi r0,-4
     592:	02 e0       	mov r2,r0
     594:	21 f5       	stw r1,r2
     596:	0d 0f       	ldli r13,-16
     598:	d0 f0       	ldw r0,r13
     59a:	c0 ab       	addi r0,-4
     59c:	03 e0       	mov r3,r0
     59e:	31 f0       	ldw r1,r3
     5a0:	0d 0f       	ldli r13,-16
     5a2:	d0 f0       	ldw r0,r13
     5a4:	60 ab       	addi r0,-10
     5a6:	02 e0       	mov r2,r0
     5a8:	20 f2       	ldhu r0,r2
     5aa:	13 e0       	mov r3,r1
     5ac:	30 f6       	sth r0,r3
     5ae:	47 0f       	ldli r7,-12
     5b0:	7d f0       	ldw r13,r7
     5b2:	cd a8       	addi r13,12
     5b4:	7d f5       	stw r13,r7
     5b6:	07 0f       	ldli r7,-16
     5b8:	0d 4c       	ldfpz_inc r13,0
     5ba:	7d f5       	stw r13,r7
     5bc:	0e f8       	rts
     5be:	07 0f       	ldli r7,-16
     5c0:	7d f0       	ldw r13,r7
     5c2:	fd 5f       	stfpz_dec r13,-1
     5c4:	47 0f       	ldli r7,-12
     5c6:	7d f0       	ldw r13,r7
     5c8:	07 0f       	ldli r7,-16
     5ca:	7d f5       	stw r13,r7
     5cc:	47 0f       	ldli r7,-12
     5ce:	7d f0       	ldw r13,r7
     5d0:	4d ab       	addi r13,-12
     5d2:	7d f5       	stw r13,r7
     5d4:	0d 0f       	ldli r13,-16
     5d6:	d0 f0       	ldw r0,r13
     5d8:	80 ab       	addi r0,-8
     5da:	04 e0       	mov r4,r0
     5dc:	41 f5       	stw r1,r4
     5de:	0d 0f       	ldli r13,-16
     5e0:	d0 f0       	ldw r0,r13
     5e2:	70 ab       	addi r0,-9
     5e4:	01 e0       	mov r1,r0
     5e6:	12 f7       	stb r2,r1
     5e8:	0d 0f       	ldli r13,-16
     5ea:	d0 f0       	ldw r0,r13
     5ec:	60 ab       	addi r0,-10
     5ee:	02 e0       	mov r2,r0
     5f0:	23 f7       	stb r3,r2
     5f2:	0d 0f       	ldli r13,-16
     5f4:	d0 f0       	ldw r0,r13
     5f6:	80 ab       	addi r0,-8
     5f8:	04 e0       	mov r4,r0
     5fa:	40 f0       	ldw r0,r4
     5fc:	01 e0       	mov r1,r0
     5fe:	10 f0       	ldw r0,r1
     600:	01 e0       	mov r1,r0
     602:	61 a8       	addi r1,6
     604:	0d 0f       	ldli r13,-16
     606:	d0 f0       	ldw r0,r13
     608:	c0 ab       	addi r0,-4
     60a:	02 e0       	mov r2,r0
     60c:	21 f5       	stw r1,r2
     60e:	0d 0f       	ldli r13,-16
     610:	d0 f0       	ldw r0,r13
     612:	70 ab       	addi r0,-9
     614:	04 e0       	mov r4,r0
     616:	40 f4       	ldbu r0,r4
     618:	f1 03       	ldli r1,63
     61a:	10 e5       	and r0,r1
     61c:	60 a4       	bset r0,0x6
     61e:	01 e0       	mov r1,r0
     620:	0d 0f       	ldli r13,-16
     622:	d0 f0       	ldw r0,r13
     624:	c0 ab       	addi r0,-4
     626:	02 e0       	mov r2,r0
     628:	20 f0       	ldw r0,r2
     62a:	04 e0       	mov r4,r0
     62c:	41 f7       	stb r1,r4
     62e:	0d 0f       	ldli r13,-16
     630:	d0 f0       	ldw r0,r13
     632:	80 ab       	addi r0,-8
     634:	01 e0       	mov r1,r0
     636:	10 f0       	ldw r0,r1
     638:	02 e0       	mov r2,r0
     63a:	20 f0       	ldw r0,r2
     63c:	01 e0       	mov r1,r0
     63e:	71 a8       	addi r1,7
     640:	0d 0f       	ldli r13,-16
     642:	d0 f0       	ldw r0,r13
     644:	c0 ab       	addi r0,-4
     646:	04 e0       	mov r4,r0
     648:	41 f5       	stw r1,r4
     64a:	0d 0f       	ldli r13,-16
     64c:	d0 f0       	ldw r0,r13
     64e:	c0 ab       	addi r0,-4
     650:	02 e0       	mov r2,r0
     652:	21 f0       	ldw r1,r2
     654:	0d 0f       	ldli r13,-16
     656:	d0 f0       	ldw r0,r13
     658:	60 ab       	addi r0,-10
     65a:	04 e0       	mov r4,r0
     65c:	40 f4       	ldbu r0,r4
     65e:	12 e0       	mov r2,r1
     660:	20 f7       	stb r0,r2
     662:	47 0f       	ldli r7,-12
     664:	7d f0       	ldw r13,r7
     666:	cd a8       	addi r13,12
     668:	7d f5       	stw r13,r7
     66a:	07 0f       	ldli r7,-16
     66c:	0d 4c       	ldfpz_inc r13,0
     66e:	7d f5       	stw r13,r7
     670:	0e f8       	rts
     672:	fe 5f       	stfpz_dec r14,-1
     674:	07 0f       	ldli r7,-16
     676:	7d f0       	ldw r13,r7
     678:	fd 5f       	stfpz_dec r13,-1
     67a:	47 0f       	ldli r7,-12
     67c:	7d f0       	ldw r13,r7
     67e:	07 0f       	ldli r7,-16
     680:	7d f5       	stw r13,r7
     682:	47 0f       	ldli r7,-12
     684:	7d f0       	ldw r13,r7
     686:	0d ab       	addi r13,-16
     688:	7d f5       	stw r13,r7
     68a:	0d 0f       	ldli r13,-16
     68c:	d0 f0       	ldw r0,r13
     68e:	80 ab       	addi r0,-8
     690:	04 e0       	mov r4,r0
     692:	41 f5       	stw r1,r4
     694:	0d 0f       	ldli r13,-16
     696:	d0 f0       	ldw r0,r13
     698:	70 ab       	addi r0,-9
     69a:	01 e0       	mov r1,r0
     69c:	12 f7       	stb r2,r1
     69e:	0d 0f       	ldli r13,-16
     6a0:	d0 f0       	ldw r0,r13
     6a2:	60 ab       	addi r0,-10
     6a4:	02 e0       	mov r2,r0
     6a6:	23 f7       	stb r3,r2
     6a8:	0d 0f       	ldli r13,-16
     6aa:	d1 f0       	ldw r1,r13
     6ac:	c1 ab       	addi r1,-4
     6ae:	00 00       	ldli r0,0
     6b0:	14 e0       	mov r4,r1
     6b2:	40 f5       	stw r0,r4
     6b4:	0d 0f       	ldli r13,-16
     6b6:	d1 f0       	ldw r1,r13
     6b8:	c1 ab       	addi r1,-4
     6ba:	00 00       	ldli r0,0
     6bc:	12 e0       	mov r2,r1
     6be:	20 f5       	stw r0,r2
     6c0:	51 ac       	jmpi 81
     6c2:	0d 0f       	ldli r13,-16
     6c4:	d0 f0       	ldw r0,r13
     6c6:	c0 ab       	addi r0,-4
     6c8:	04 e0       	mov r4,r0
     6ca:	40 f0       	ldw r0,r4
     6cc:	01 e0       	mov r1,r0
     6ce:	0d 0f       	ldli r13,-16
     6d0:	d0 f0       	ldw r0,r13
     6d2:	70 ab       	addi r0,-9
     6d4:	02 e0       	mov r2,r0
     6d6:	20 f4       	ldbu r0,r2
     6d8:	10 e1       	add r0,r1
     6da:	04 e0       	mov r4,r0
     6dc:	0d 0f       	ldli r13,-16
     6de:	d0 f0       	ldw r0,r13
     6e0:	60 ab       	addi r0,-10
     6e2:	01 e0       	mov r1,r0
     6e4:	10 f4       	ldbu r0,r1
     6e6:	82 01       	ldli r2,24
     6e8:	20 a0       	sl r0,r2
     6ea:	81 01       	ldli r1,24
     6ec:	10 a2       	sr r0,r1
     6ee:	a2 00       	ldli r2,10
     6f0:	03 10       	ldhi r3,0
     6f2:	03 20       	ldliu r3,0x0
     6f4:	83 a1       	sli r3,0x8
     6f6:	63 20       	ldliu r3,0x6
     6f8:	83 a1       	sli r3,0x8
     6fa:	f3 2f       	ldliu r3,0xff
     6fc:	01 e0       	mov r1,r0
     6fe:	03 ee       	jsr r3
     700:	03 e0       	mov r3,r0
     702:	0d 0f       	ldli r13,-16
     704:	d0 f0       	ldw r0,r13
     706:	80 ab       	addi r0,-8
     708:	02 e0       	mov r2,r0
     70a:	20 f0       	ldw r0,r2
     70c:	01 e0       	mov r1,r0
     70e:	42 e0       	mov r2,r4
     710:	00 10       	ldhi r0,0
     712:	00 20       	ldliu r0,0x0
     714:	80 a1       	sli r0,0x8
     716:	20 20       	ldliu r0,0x2
     718:	80 a1       	sli r0,0x8
     71a:	f0 2d       	ldliu r0,0xdf
     71c:	00 ee       	jsr r0
     71e:	0d 0f       	ldli r13,-16
     720:	d4 f0       	ldw r4,r13
     722:	64 ab       	addi r4,-10
     724:	0d 0f       	ldli r13,-16
     726:	d0 f0       	ldw r0,r13
     728:	60 ab       	addi r0,-10
     72a:	01 e0       	mov r1,r0
     72c:	10 f4       	ldbu r0,r1
     72e:	82 01       	ldli r2,24
     730:	20 a0       	sl r0,r2
     732:	81 01       	ldli r1,24
     734:	10 a2       	sr r0,r1
     736:	a2 00       	ldli r2,10
     738:	03 10       	ldhi r3,0
     73a:	03 20       	ldliu r3,0x0
     73c:	83 a1       	sli r3,0x8
     73e:	63 20       	ldliu r3,0x6
     740:	83 a1       	sli r3,0x8
     742:	c3 2e       	ldliu r3,0xec
     744:	01 e0       	mov r1,r0
     746:	03 ee       	jsr r3
     748:	42 e0       	mov r2,r4
     74a:	20 f7       	stb r0,r2
     74c:	0d 0f       	ldli r13,-16
     74e:	d1 f0       	ldw r1,r13
     750:	c1 ab       	addi r1,-4
     752:	0d 0f       	ldli r13,-16
     754:	d0 f0       	ldw r0,r13
     756:	c0 ab       	addi r0,-4
     758:	04 e0       	mov r4,r0
     75a:	40 f0       	ldw r0,r4
     75c:	10 a8       	addi r0,1
     75e:	12 e0       	mov r2,r1
     760:	20 f5       	stw r0,r2
     762:	0d 0f       	ldli r13,-16
     764:	d0 f0       	ldw r0,r13
     766:	80 ab       	addi r0,-8
     768:	04 e0       	mov r4,r0
     76a:	40 f0       	ldw r0,r4
     76c:	40 a8       	addi r0,4
     76e:	01 e0       	mov r1,r0
     770:	10 f4       	ldbu r0,r1
     772:	82 01       	ldli r2,24
     774:	20 a0       	sl r0,r2
     776:	84 01       	ldli r4,24
     778:	40 a2       	sr r0,r4
     77a:	3d 00       	ldli r13,3
     77c:	d0 b4       	cmpu_gt r0,r13
     77e:	12 9c       	jmpi_ct 18
     780:	0d 0f       	ldli r13,-16
     782:	d0 f0       	ldw r0,r13
     784:	80 ab       	addi r0,-8
     786:	01 e0       	mov r1,r0
     788:	10 f0       	ldw r0,r1
     78a:	40 a8       	addi r0,4
     78c:	02 e0       	mov r2,r0
     78e:	20 f4       	ldbu r0,r2
     790:	04 e0       	mov r4,r0
     792:	81 01       	ldli r1,24
     794:	14 a0       	sl r4,r1
     796:	c4 7b       	stfpy r4,-4
     798:	c2 6b       	ldfpy r2,-4
     79a:	84 01       	ldli r4,24
     79c:	42 a2       	sr r2,r4
     79e:	c2 7b       	stfpy r2,-4
     7a0:	03 ac       	jmpi 3
     7a2:	30 00       	ldli r0,3
     7a4:	c0 7b       	stfpy r0,-4
     7a6:	0d 0f       	ldli r13,-16
     7a8:	d0 f0       	ldw r0,r13
     7aa:	c0 ab       	addi r0,-4
     7ac:	01 e0       	mov r1,r0
     7ae:	10 f0       	ldw r0,r1
     7b0:	c2 6b       	ldfpy r2,-4
     7b2:	02 b2       	cmp_gt r2,r0
     7b4:	87 9f       	jmpi_ct -121
     7b6:	47 0f       	ldli r7,-12
     7b8:	7d f0       	ldw r13,r7
     7ba:	06 01       	ldli r6,16
     7bc:	6d e1       	add r13,r6
     7be:	7d f5       	stw r13,r7
     7c0:	07 0f       	ldli r7,-16
     7c2:	0d 4c       	ldfpz_inc r13,0
     7c4:	7d f5       	stw r13,r7
     7c6:	0e 4c       	ldfpz_inc r14,0
     7c8:	0e f8       	rts
     7ca:	fe 5f       	stfpz_dec r14,-1
     7cc:	07 0f       	ldli r7,-16
     7ce:	7d f0       	ldw r13,r7
     7d0:	fd 5f       	stfpz_dec r13,-1
     7d2:	47 0f       	ldli r7,-12
     7d4:	7d f0       	ldw r13,r7
     7d6:	07 0f       	ldli r7,-16
     7d8:	7d f5       	stw r13,r7
     7da:	47 0f       	ldli r7,-12
     7dc:	7d f0       	ldw r13,r7
     7de:	0d ab       	addi r13,-16
     7e0:	7d f5       	stw r13,r7
     7e2:	0d 0f       	ldli r13,-16
     7e4:	d0 f0       	ldw r0,r13
     7e6:	80 ab       	addi r0,-8
     7e8:	04 e0       	mov r4,r0
     7ea:	41 f5       	stw r1,r4
     7ec:	0d 0f       	ldli r13,-16
     7ee:	d0 f0       	ldw r0,r13
     7f0:	70 ab       	addi r0,-9
     7f2:	01 e0       	mov r1,r0
     7f4:	12 f7       	stb r2,r1
     7f6:	0d 0f       	ldli r13,-16
     7f8:	d0 f0       	ldw r0,r13
     7fa:	40 ab       	addi r0,-12
     7fc:	02 e0       	mov r2,r0
     7fe:	23 f6       	sth r3,r2
     800:	0d 0f       	ldli r13,-16
     802:	d1 f0       	ldw r1,r13
     804:	c1 ab       	addi r1,-4
     806:	00 00       	ldli r0,0
     808:	14 e0       	mov r4,r1
     80a:	40 f5       	stw r0,r4
     80c:	0d 0f       	ldli r13,-16
     80e:	d1 f0       	ldw r1,r13
     810:	c1 ab       	addi r1,-4
     812:	00 00       	ldli r0,0
     814:	12 e0       	mov r2,r1
     816:	20 f5       	stw r0,r2
     818:	51 ac       	jmpi 81
     81a:	0d 0f       	ldli r13,-16
     81c:	d0 f0       	ldw r0,r13
     81e:	c0 ab       	addi r0,-4
     820:	04 e0       	mov r4,r0
     822:	40 f0       	ldw r0,r4
     824:	01 e0       	mov r1,r0
     826:	0d 0f       	ldli r13,-16
     828:	d0 f0       	ldw r0,r13
     82a:	70 ab       	addi r0,-9
     82c:	02 e0       	mov r2,r0
     82e:	20 f4       	ldbu r0,r2
     830:	10 e1       	add r0,r1
     832:	04 e0       	mov r4,r0
     834:	0d 0f       	ldli r13,-16
     836:	d0 f0       	ldw r0,r13
     838:	40 ab       	addi r0,-12
     83a:	01 e0       	mov r1,r0
     83c:	10 f2       	ldhu r0,r1
     83e:	02 01       	ldli r2,16
     840:	20 a0       	sl r0,r2
     842:	01 01       	ldli r1,16
     844:	10 a2       	sr r0,r1
     846:	a2 00       	ldli r2,10
     848:	03 10       	ldhi r3,0
     84a:	03 20       	ldliu r3,0x0
     84c:	83 a1       	sli r3,0x8
     84e:	63 20       	ldliu r3,0x6
     850:	83 a1       	sli r3,0x8
     852:	f3 2f       	ldliu r3,0xff
     854:	01 e0       	mov r1,r0
     856:	03 ee       	jsr r3
     858:	03 e0       	mov r3,r0
     85a:	0d 0f       	ldli r13,-16
     85c:	d0 f0       	ldw r0,r13
     85e:	80 ab       	addi r0,-8
     860:	02 e0       	mov r2,r0
     862:	20 f0       	ldw r0,r2
     864:	01 e0       	mov r1,r0
     866:	42 e0       	mov r2,r4
     868:	00 10       	ldhi r0,0
     86a:	00 20       	ldliu r0,0x0
     86c:	80 a1       	sli r0,0x8
     86e:	20 20       	ldliu r0,0x2
     870:	80 a1       	sli r0,0x8
     872:	f0 2d       	ldliu r0,0xdf
     874:	00 ee       	jsr r0
     876:	0d 0f       	ldli r13,-16
     878:	d4 f0       	ldw r4,r13
     87a:	44 ab       	addi r4,-12
     87c:	0d 0f       	ldli r13,-16
     87e:	d0 f0       	ldw r0,r13
     880:	40 ab       	addi r0,-12
     882:	01 e0       	mov r1,r0
     884:	10 f2       	ldhu r0,r1
     886:	02 01       	ldli r2,16
     888:	20 a0       	sl r0,r2
     88a:	01 01       	ldli r1,16
     88c:	10 a2       	sr r0,r1
     88e:	a2 00       	ldli r2,10
     890:	03 10       	ldhi r3,0
     892:	03 20       	ldliu r3,0x0
     894:	83 a1       	sli r3,0x8
     896:	63 20       	ldliu r3,0x6
     898:	83 a1       	sli r3,0x8
     89a:	c3 2e       	ldliu r3,0xec
     89c:	01 e0       	mov r1,r0
     89e:	03 ee       	jsr r3
     8a0:	42 e0       	mov r2,r4
     8a2:	20 f6       	sth r0,r2
     8a4:	0d 0f       	ldli r13,-16
     8a6:	d1 f0       	ldw r1,r13
     8a8:	c1 ab       	addi r1,-4
     8aa:	0d 0f       	ldli r13,-16
     8ac:	d0 f0       	ldw r0,r13
     8ae:	c0 ab       	addi r0,-4
     8b0:	04 e0       	mov r4,r0
     8b2:	40 f0       	ldw r0,r4
     8b4:	10 a8       	addi r0,1
     8b6:	12 e0       	mov r2,r1
     8b8:	20 f5       	stw r0,r2
     8ba:	0d 0f       	ldli r13,-16
     8bc:	d0 f0       	ldw r0,r13
     8be:	80 ab       	addi r0,-8
     8c0:	04 e0       	mov r4,r0
     8c2:	40 f0       	ldw r0,r4
     8c4:	40 a8       	addi r0,4
     8c6:	01 e0       	mov r1,r0
     8c8:	10 f4       	ldbu r0,r1
     8ca:	82 01       	ldli r2,24
     8cc:	20 a0       	sl r0,r2
     8ce:	84 01       	ldli r4,24
     8d0:	40 a2       	sr r0,r4
     8d2:	5d 00       	ldli r13,5
     8d4:	d0 b4       	cmpu_gt r0,r13
     8d6:	12 9c       	jmpi_ct 18
     8d8:	0d 0f       	ldli r13,-16
     8da:	d0 f0       	ldw r0,r13
     8dc:	80 ab       	addi r0,-8
     8de:	01 e0       	mov r1,r0
     8e0:	10 f0       	ldw r0,r1
     8e2:	40 a8       	addi r0,4
     8e4:	02 e0       	mov r2,r0
     8e6:	20 f4       	ldbu r0,r2
     8e8:	04 e0       	mov r4,r0
     8ea:	81 01       	ldli r1,24
     8ec:	14 a0       	sl r4,r1
     8ee:	c4 7b       	stfpy r4,-4
     8f0:	c2 6b       	ldfpy r2,-4
     8f2:	84 01       	ldli r4,24
     8f4:	42 a2       	sr r2,r4
     8f6:	c2 7b       	stfpy r2,-4
     8f8:	03 ac       	jmpi 3
     8fa:	50 00       	ldli r0,5
     8fc:	c0 7b       	stfpy r0,-4
     8fe:	0d 0f       	ldli r13,-16
     900:	d0 f0       	ldw r0,r13
     902:	c0 ab       	addi r0,-4
     904:	01 e0       	mov r1,r0
     906:	10 f0       	ldw r0,r1
     908:	c2 6b       	ldfpy r2,-4
     90a:	02 b2       	cmp_gt r2,r0
     90c:	87 9f       	jmpi_ct -121
     90e:	47 0f       	ldli r7,-12
     910:	7d f0       	ldw r13,r7
     912:	06 01       	ldli r6,16
     914:	6d e1       	add r13,r6
     916:	7d f5       	stw r13,r7
     918:	07 0f       	ldli r7,-16
     91a:	0d 4c       	ldfpz_inc r13,0
     91c:	7d f5       	stw r13,r7
     91e:	0e 4c       	ldfpz_inc r14,0
     920:	0e f8       	rts
     922:	fe 5f       	stfpz_dec r14,-1
     924:	07 0f       	ldli r7,-16
     926:	7d f0       	ldw r13,r7
     928:	fd 5f       	stfpz_dec r13,-1
     92a:	47 0f       	ldli r7,-12
     92c:	7d f0       	ldw r13,r7
     92e:	07 0f       	ldli r7,-16
     930:	7d f5       	stw r13,r7
     932:	47 0f       	ldli r7,-12
     934:	7d f0       	ldw r13,r7
     936:	c6 0e       	ldli r6,-20
     938:	6d e1       	add r13,r6
     93a:	7d f5       	stw r13,r7
     93c:	0d 0f       	ldli r13,-16
     93e:	d0 f0       	ldw r0,r13
     940:	80 ab       	addi r0,-8
     942:	04 e0       	mov r4,r0
     944:	41 f5       	stw r1,r4
     946:	0d 0f       	ldli r13,-16
     948:	d0 f0       	ldw r0,r13
     94a:	70 ab       	addi r0,-9
     94c:	01 e0       	mov r1,r0
     94e:	12 f7       	stb r2,r1
     950:	0d 0f       	ldli r13,-16
     952:	d0 f0       	ldw r0,r13
     954:	00 ab       	addi r0,-16
     956:	02 e0       	mov r2,r0
     958:	23 f5       	stw r3,r2
     95a:	0d 0f       	ldli r13,-16
     95c:	d1 f0       	ldw r1,r13
     95e:	c1 ab       	addi r1,-4
     960:	00 00       	ldli r0,0
     962:	14 e0       	mov r4,r1
     964:	40 f5       	stw r0,r4
     966:	0d 0f       	ldli r13,-16
     968:	d1 f0       	ldw r1,r13
     96a:	c1 ab       	addi r1,-4
     96c:	00 00       	ldli r0,0
     96e:	12 e0       	mov r2,r1
     970:	20 f5       	stw r0,r2
     972:	49 ac       	jmpi 73
     974:	0d 0f       	ldli r13,-16
     976:	d0 f0       	ldw r0,r13
     978:	c0 ab       	addi r0,-4
     97a:	04 e0       	mov r4,r0
     97c:	40 f0       	ldw r0,r4
     97e:	01 e0       	mov r1,r0
     980:	0d 0f       	ldli r13,-16
     982:	d0 f0       	ldw r0,r13
     984:	70 ab       	addi r0,-9
     986:	02 e0       	mov r2,r0
     988:	20 f4       	ldbu r0,r2
     98a:	10 e1       	add r0,r1
     98c:	04 e0       	mov r4,r0
     98e:	0d 0f       	ldli r13,-16
     990:	d0 f0       	ldw r0,r13
     992:	00 ab       	addi r0,-16
     994:	01 e0       	mov r1,r0
     996:	10 f0       	ldw r0,r1
     998:	a2 00       	ldli r2,10
     99a:	03 10       	ldhi r3,0
     99c:	03 20       	ldliu r3,0x0
     99e:	83 a1       	sli r3,0x8
     9a0:	63 20       	ldliu r3,0x6
     9a2:	83 a1       	sli r3,0x8
     9a4:	f3 2f       	ldliu r3,0xff
     9a6:	01 e0       	mov r1,r0
     9a8:	03 ee       	jsr r3
     9aa:	03 e0       	mov r3,r0
     9ac:	0d 0f       	ldli r13,-16
     9ae:	d0 f0       	ldw r0,r13
     9b0:	80 ab       	addi r0,-8
     9b2:	02 e0       	mov r2,r0
     9b4:	20 f0       	ldw r0,r2
     9b6:	01 e0       	mov r1,r0
     9b8:	42 e0       	mov r2,r4
     9ba:	00 10       	ldhi r0,0
     9bc:	00 20       	ldliu r0,0x0
     9be:	80 a1       	sli r0,0x8
     9c0:	20 20       	ldliu r0,0x2
     9c2:	80 a1       	sli r0,0x8
     9c4:	f0 2d       	ldliu r0,0xdf
     9c6:	00 ee       	jsr r0
     9c8:	0d 0f       	ldli r13,-16
     9ca:	d4 f0       	ldw r4,r13
     9cc:	04 ab       	addi r4,-16
     9ce:	0d 0f       	ldli r13,-16
     9d0:	d0 f0       	ldw r0,r13
     9d2:	00 ab       	addi r0,-16
     9d4:	01 e0       	mov r1,r0
     9d6:	10 f0       	ldw r0,r1
     9d8:	a2 00       	ldli r2,10
     9da:	03 10       	ldhi r3,0
     9dc:	03 20       	ldliu r3,0x0
     9de:	83 a1       	sli r3,0x8
     9e0:	63 20       	ldliu r3,0x6
     9e2:	83 a1       	sli r3,0x8
     9e4:	c3 2e       	ldliu r3,0xec
     9e6:	01 e0       	mov r1,r0
     9e8:	03 ee       	jsr r3
     9ea:	42 e0       	mov r2,r4
     9ec:	20 f5       	stw r0,r2
     9ee:	0d 0f       	ldli r13,-16
     9f0:	d1 f0       	ldw r1,r13
     9f2:	c1 ab       	addi r1,-4
     9f4:	0d 0f       	ldli r13,-16
     9f6:	d0 f0       	ldw r0,r13
     9f8:	c0 ab       	addi r0,-4
     9fa:	04 e0       	mov r4,r0
     9fc:	40 f0       	ldw r0,r4
     9fe:	10 a8       	addi r0,1
     a00:	12 e0       	mov r2,r1
     a02:	20 f5       	stw r0,r2
     a04:	0d 0f       	ldli r13,-16
     a06:	d0 f0       	ldw r0,r13
     a08:	80 ab       	addi r0,-8
     a0a:	04 e0       	mov r4,r0
     a0c:	40 f0       	ldw r0,r4
     a0e:	40 a8       	addi r0,4
     a10:	01 e0       	mov r1,r0
     a12:	10 f4       	ldbu r0,r1
     a14:	82 01       	ldli r2,24
     a16:	20 a0       	sl r0,r2
     a18:	84 01       	ldli r4,24
     a1a:	40 a2       	sr r0,r4
     a1c:	ad 00       	ldli r13,10
     a1e:	d0 b4       	cmpu_gt r0,r13
     a20:	12 9c       	jmpi_ct 18
     a22:	0d 0f       	ldli r13,-16
     a24:	d0 f0       	ldw r0,r13
     a26:	80 ab       	addi r0,-8
     a28:	01 e0       	mov r1,r0
     a2a:	10 f0       	ldw r0,r1
     a2c:	40 a8       	addi r0,4
     a2e:	02 e0       	mov r2,r0
     a30:	20 f4       	ldbu r0,r2
     a32:	04 e0       	mov r4,r0
     a34:	81 01       	ldli r1,24
     a36:	14 a0       	sl r4,r1
     a38:	b4 7b       	stfpy r4,-5
     a3a:	b2 6b       	ldfpy r2,-5
     a3c:	84 01       	ldli r4,24
     a3e:	42 a2       	sr r2,r4
     a40:	b2 7b       	stfpy r2,-5
     a42:	03 ac       	jmpi 3
     a44:	a0 00       	ldli r0,10
     a46:	b0 7b       	stfpy r0,-5
     a48:	0d 0f       	ldli r13,-16
     a4a:	d0 f0       	ldw r0,r13
     a4c:	c0 ab       	addi r0,-4
     a4e:	01 e0       	mov r1,r0
     a50:	10 f0       	ldw r0,r1
     a52:	b2 6b       	ldfpy r2,-5
     a54:	02 b2       	cmp_gt r2,r0
     a56:	8f 9f       	jmpi_ct -113
     a58:	47 0f       	ldli r7,-12
     a5a:	7d f0       	ldw r13,r7
     a5c:	46 01       	ldli r6,20
     a5e:	6d e1       	add r13,r6
     a60:	7d f5       	stw r13,r7
     a62:	07 0f       	ldli r7,-16
     a64:	0d 4c       	ldfpz_inc r13,0
     a66:	7d f5       	stw r13,r7
     a68:	0e 4c       	ldfpz_inc r14,0
     a6a:	0e f8       	rts
     a6c:	fe 5f       	stfpz_dec r14,-1
     a6e:	07 0f       	ldli r7,-16
     a70:	7d f0       	ldw r13,r7
     a72:	fd 5f       	stfpz_dec r13,-1
     a74:	47 0f       	ldli r7,-12
     a76:	7d f0       	ldw r13,r7
     a78:	07 0f       	ldli r7,-16
     a7a:	7d f5       	stw r13,r7
     a7c:	47 0f       	ldli r7,-12
     a7e:	7d f0       	ldw r13,r7
     a80:	8d ab       	addi r13,-8
     a82:	7d f5       	stw r13,r7
     a84:	0d 0f       	ldli r13,-16
     a86:	d0 f0       	ldw r0,r13
     a88:	c0 ab       	addi r0,-4
     a8a:	04 e0       	mov r4,r0
     a8c:	41 f5       	stw r1,r4
     a8e:	0d 0f       	ldli r13,-16
     a90:	d0 f0       	ldw r0,r13
     a92:	b0 ab       	addi r0,-5
     a94:	01 e0       	mov r1,r0
     a96:	12 f7       	stb r2,r1
     a98:	0d 0f       	ldli r13,-16
     a9a:	d0 f0       	ldw r0,r13
     a9c:	a0 ab       	addi r0,-6
     a9e:	02 e0       	mov r2,r0
     aa0:	23 f7       	stb r3,r2
     aa2:	0d 0f       	ldli r13,-16
     aa4:	d0 f0       	ldw r0,r13
     aa6:	a0 ab       	addi r0,-6
     aa8:	04 e0       	mov r4,r0
     aaa:	40 f4       	ldbu r0,r4
     aac:	f1 00       	ldli r1,15
     aae:	10 e5       	and r0,r1
     ab0:	03 e0       	mov r3,r0
     ab2:	0d 0f       	ldli r13,-16
     ab4:	d0 f0       	ldw r0,r13
     ab6:	c0 ab       	addi r0,-4
     ab8:	02 e0       	mov r2,r0
     aba:	21 f0       	ldw r1,r2
     abc:	0d 0f       	ldli r13,-16
     abe:	d0 f0       	ldw r0,r13
     ac0:	b0 ab       	addi r0,-5
     ac2:	04 e0       	mov r4,r0
     ac4:	40 f4       	ldbu r0,r4
     ac6:	02 e0       	mov r2,r0
     ac8:	00 10       	ldhi r0,0
     aca:	00 20       	ldliu r0,0x0
     acc:	80 a1       	sli r0,0x8
     ace:	20 20       	ldliu r0,0x2
     ad0:	80 a1       	sli r0,0x8
     ad2:	f0 2d       	ldliu r0,0xdf
     ad4:	00 ee       	jsr r0
     ad6:	0d 0f       	ldli r13,-16
     ad8:	d0 f0       	ldw r0,r13
     ada:	b0 ab       	addi r0,-5
     adc:	01 e0       	mov r1,r0
     ade:	10 f4       	ldbu r0,r1
     ae0:	10 a8       	addi r0,1
     ae2:	02 e0       	mov r2,r0
     ae4:	0d 0f       	ldli r13,-16
     ae6:	d0 f0       	ldw r0,r13
     ae8:	a0 ab       	addi r0,-6
     aea:	04 e0       	mov r4,r0
     aec:	40 f4       	ldbu r0,r4
     aee:	81 01       	ldli r1,24
     af0:	10 a0       	sl r0,r1
     af2:	84 01       	ldli r4,24
     af4:	40 a2       	sr r0,r4
     af6:	40 a3       	sri r0,0x4
     af8:	03 e0       	mov r3,r0
     afa:	0d 0f       	ldli r13,-16
     afc:	d0 f0       	ldw r0,r13
     afe:	c0 ab       	addi r0,-4
     b00:	01 e0       	mov r1,r0
     b02:	10 f0       	ldw r0,r1
     b04:	01 e0       	mov r1,r0
     b06:	00 10       	ldhi r0,0
     b08:	00 20       	ldliu r0,0x0
     b0a:	80 a1       	sli r0,0x8
     b0c:	20 20       	ldliu r0,0x2
     b0e:	80 a1       	sli r0,0x8
     b10:	f0 2d       	ldliu r0,0xdf
     b12:	00 ee       	jsr r0
     b14:	47 0f       	ldli r7,-12
     b16:	7d f0       	ldw r13,r7
     b18:	8d a8       	addi r13,8
     b1a:	7d f5       	stw r13,r7
     b1c:	07 0f       	ldli r7,-16
     b1e:	0d 4c       	ldfpz_inc r13,0
     b20:	7d f5       	stw r13,r7
     b22:	0e 4c       	ldfpz_inc r14,0
     b24:	0e f8       	rts
     b26:	fe 5f       	stfpz_dec r14,-1
     b28:	07 0f       	ldli r7,-16
     b2a:	7d f0       	ldw r13,r7
     b2c:	fd 5f       	stfpz_dec r13,-1
     b2e:	47 0f       	ldli r7,-12
     b30:	7d f0       	ldw r13,r7
     b32:	07 0f       	ldli r7,-16
     b34:	7d f5       	stw r13,r7
     b36:	47 0f       	ldli r7,-12
     b38:	7d f0       	ldw r13,r7
     b3a:	4d ab       	addi r13,-12
     b3c:	7d f5       	stw r13,r7
     b3e:	0d 0f       	ldli r13,-16
     b40:	d0 f0       	ldw r0,r13
     b42:	80 ab       	addi r0,-8
     b44:	04 e0       	mov r4,r0
     b46:	41 f5       	stw r1,r4
     b48:	0d 0f       	ldli r13,-16
     b4a:	d0 f0       	ldw r0,r13
     b4c:	70 ab       	addi r0,-9
     b4e:	01 e0       	mov r1,r0
     b50:	12 f7       	stb r2,r1
     b52:	0d 0f       	ldli r13,-16
     b54:	d0 f0       	ldw r0,r13
     b56:	40 ab       	addi r0,-12
     b58:	02 e0       	mov r2,r0
     b5a:	23 f6       	sth r3,r2
     b5c:	0d 0f       	ldli r13,-16
     b5e:	d1 f0       	ldw r1,r13
     b60:	c1 ab       	addi r1,-4
     b62:	00 00       	ldli r0,0
     b64:	13 e0       	mov r3,r1
     b66:	30 f5       	stw r0,r3
     b68:	0d 0f       	ldli r13,-16
     b6a:	d1 f0       	ldw r1,r13
     b6c:	c1 ab       	addi r1,-4
     b6e:	00 00       	ldli r0,0
     b70:	14 e0       	mov r4,r1
     b72:	40 f5       	stw r0,r4
     b74:	3c ac       	jmpi 60
     b76:	0d 0f       	ldli r13,-16
     b78:	d0 f0       	ldw r0,r13
     b7a:	c0 ab       	addi r0,-4
     b7c:	01 e0       	mov r1,r0
     b7e:	10 f0       	ldw r0,r1
     b80:	01 e0       	mov r1,r0
     b82:	0d 0f       	ldli r13,-16
     b84:	d0 f0       	ldw r0,r13
     b86:	70 ab       	addi r0,-9
     b88:	02 e0       	mov r2,r0
     b8a:	20 f4       	ldbu r0,r2
     b8c:	10 e1       	add r0,r1
     b8e:	02 e0       	mov r2,r0
     b90:	0d 0f       	ldli r13,-16
     b92:	d0 f0       	ldw r0,r13
     b94:	40 ab       	addi r0,-12
     b96:	03 e0       	mov r3,r0
     b98:	30 f2       	ldhu r0,r3
     b9a:	01 e0       	mov r1,r0
     b9c:	04 01       	ldli r4,16
     b9e:	41 a0       	sl r1,r4
     ba0:	00 01       	ldli r0,16
     ba2:	01 a2       	sr r1,r0
     ba4:	0d 0f       	ldli r13,-16
     ba6:	d0 f0       	ldw r0,r13
     ba8:	c0 ab       	addi r0,-4
     baa:	03 e0       	mov r3,r0
     bac:	30 f0       	ldw r0,r3
     bae:	20 a1       	sli r0,0x2
     bb0:	14 e0       	mov r4,r1
     bb2:	04 e8       	sra r4,r0
     bb4:	40 e0       	mov r0,r4
     bb6:	f1 00       	ldli r1,15
     bb8:	10 e5       	and r0,r1
     bba:	03 e0       	mov r3,r0
     bbc:	0d 0f       	ldli r13,-16
     bbe:	d0 f0       	ldw r0,r13
     bc0:	80 ab       	addi r0,-8
     bc2:	04 e0       	mov r4,r0
     bc4:	40 f0       	ldw r0,r4
     bc6:	01 e0       	mov r1,r0
     bc8:	00 10       	ldhi r0,0
     bca:	00 20       	ldliu r0,0x0
     bcc:	80 a1       	sli r0,0x8
     bce:	20 20       	ldliu r0,0x2
     bd0:	80 a1       	sli r0,0x8
     bd2:	f0 2d       	ldliu r0,0xdf
     bd4:	00 ee       	jsr r0
     bd6:	0d 0f       	ldli r13,-16
     bd8:	d1 f0       	ldw r1,r13
     bda:	c1 ab       	addi r1,-4
     bdc:	0d 0f       	ldli r13,-16
     bde:	d0 f0       	ldw r0,r13
     be0:	c0 ab       	addi r0,-4
     be2:	02 e0       	mov r2,r0
     be4:	20 f0       	ldw r0,r2
     be6:	10 a8       	addi r0,1
     be8:	13 e0       	mov r3,r1
     bea:	30 f5       	stw r0,r3
     bec:	0d 0f       	ldli r13,-16
     bee:	d0 f0       	ldw r0,r13
     bf0:	c0 ab       	addi r0,-4
     bf2:	04 e0       	mov r4,r0
     bf4:	40 f0       	ldw r0,r4
     bf6:	30 38       	cmpi_gt r0,3
     bf8:	bf 8f       	jmpi_cf -65
     bfa:	47 0f       	ldli r7,-12
     bfc:	7d f0       	ldw r13,r7
     bfe:	cd a8       	addi r13,12
     c00:	7d f5       	stw r13,r7
     c02:	07 0f       	ldli r7,-16
     c04:	0d 4c       	ldfpz_inc r13,0
     c06:	7d f5       	stw r13,r7
     c08:	0e 4c       	ldfpz_inc r14,0
     c0a:	0e f8       	rts
     c0c:	fe 5f       	stfpz_dec r14,-1
     c0e:	07 0f       	ldli r7,-16
     c10:	7d f0       	ldw r13,r7
     c12:	fd 5f       	stfpz_dec r13,-1
     c14:	47 0f       	ldli r7,-12
     c16:	7d f0       	ldw r13,r7
     c18:	07 0f       	ldli r7,-16
     c1a:	7d f5       	stw r13,r7
     c1c:	47 0f       	ldli r7,-12
     c1e:	7d f0       	ldw r13,r7
     c20:	0d ab       	addi r13,-16
     c22:	7d f5       	stw r13,r7
     c24:	0d 0f       	ldli r13,-16
     c26:	d0 f0       	ldw r0,r13
     c28:	80 ab       	addi r0,-8
     c2a:	04 e0       	mov r4,r0
     c2c:	41 f5       	stw r1,r4
     c2e:	0d 0f       	ldli r13,-16
     c30:	d0 f0       	ldw r0,r13
     c32:	70 ab       	addi r0,-9
     c34:	01 e0       	mov r1,r0
     c36:	12 f7       	stb r2,r1
     c38:	0d 0f       	ldli r13,-16
     c3a:	d0 f0       	ldw r0,r13
     c3c:	00 ab       	addi r0,-16
     c3e:	02 e0       	mov r2,r0
     c40:	23 f5       	stw r3,r2
     c42:	0d 0f       	ldli r13,-16
     c44:	d1 f0       	ldw r1,r13
     c46:	c1 ab       	addi r1,-4
     c48:	00 00       	ldli r0,0
     c4a:	13 e0       	mov r3,r1
     c4c:	30 f5       	stw r0,r3
     c4e:	0d 0f       	ldli r13,-16
     c50:	d1 f0       	ldw r1,r13
     c52:	c1 ab       	addi r1,-4
     c54:	00 00       	ldli r0,0
     c56:	14 e0       	mov r4,r1
     c58:	40 f5       	stw r0,r4
     c5a:	36 ac       	jmpi 54
     c5c:	0d 0f       	ldli r13,-16
     c5e:	d0 f0       	ldw r0,r13
     c60:	c0 ab       	addi r0,-4
     c62:	01 e0       	mov r1,r0
     c64:	10 f0       	ldw r0,r1
     c66:	01 e0       	mov r1,r0
     c68:	0d 0f       	ldli r13,-16
     c6a:	d0 f0       	ldw r0,r13
     c6c:	70 ab       	addi r0,-9
     c6e:	02 e0       	mov r2,r0
     c70:	20 f4       	ldbu r0,r2
     c72:	10 e1       	add r0,r1
     c74:	02 e0       	mov r2,r0
     c76:	0d 0f       	ldli r13,-16
     c78:	d0 f0       	ldw r0,r13
     c7a:	c0 ab       	addi r0,-4
     c7c:	03 e0       	mov r3,r0
     c7e:	30 f0       	ldw r0,r3
     c80:	01 e0       	mov r1,r0
     c82:	21 a1       	sli r1,0x2
     c84:	0d 0f       	ldli r13,-16
     c86:	d0 f0       	ldw r0,r13
     c88:	00 ab       	addi r0,-16
     c8a:	04 e0       	mov r4,r0
     c8c:	40 f0       	ldw r0,r4
     c8e:	10 a2       	sr r0,r1
     c90:	f1 00       	ldli r1,15
     c92:	10 e5       	and r0,r1
     c94:	03 e0       	mov r3,r0
     c96:	0d 0f       	ldli r13,-16
     c98:	d0 f0       	ldw r0,r13
     c9a:	80 ab       	addi r0,-8
     c9c:	04 e0       	mov r4,r0
     c9e:	40 f0       	ldw r0,r4
     ca0:	01 e0       	mov r1,r0
     ca2:	00 10       	ldhi r0,0
     ca4:	00 20       	ldliu r0,0x0
     ca6:	80 a1       	sli r0,0x8
     ca8:	20 20       	ldliu r0,0x2
     caa:	80 a1       	sli r0,0x8
     cac:	f0 2d       	ldliu r0,0xdf
     cae:	00 ee       	jsr r0
     cb0:	0d 0f       	ldli r13,-16
     cb2:	d1 f0       	ldw r1,r13
     cb4:	c1 ab       	addi r1,-4
     cb6:	0d 0f       	ldli r13,-16
     cb8:	d0 f0       	ldw r0,r13
     cba:	c0 ab       	addi r0,-4
     cbc:	02 e0       	mov r2,r0
     cbe:	20 f0       	ldw r0,r2
     cc0:	10 a8       	addi r0,1
     cc2:	13 e0       	mov r3,r1
     cc4:	30 f5       	stw r0,r3
     cc6:	0d 0f       	ldli r13,-16
     cc8:	d0 f0       	ldw r0,r13
     cca:	c0 ab       	addi r0,-4
     ccc:	04 e0       	mov r4,r0
     cce:	40 f0       	ldw r0,r4
     cd0:	70 38       	cmpi_gt r0,7
     cd2:	c5 8f       	jmpi_cf -59
     cd4:	47 0f       	ldli r7,-12
     cd6:	7d f0       	ldw r13,r7
     cd8:	06 01       	ldli r6,16
     cda:	6d e1       	add r13,r6
     cdc:	7d f5       	stw r13,r7
     cde:	07 0f       	ldli r7,-16
     ce0:	0d 4c       	ldfpz_inc r13,0
     ce2:	7d f5       	stw r13,r7
     ce4:	0e 4c       	ldfpz_inc r14,0
     ce6:	0e f8       	rts
     ce8:	07 0f       	ldli r7,-16
     cea:	7d f0       	ldw r13,r7
     cec:	fd 5f       	stfpz_dec r13,-1
     cee:	47 0f       	ldli r7,-12
     cf0:	7d f0       	ldw r13,r7
     cf2:	07 0f       	ldli r7,-16
     cf4:	7d f5       	stw r13,r7
     cf6:	47 0f       	ldli r7,-12
     cf8:	7d f0       	ldw r13,r7
     cfa:	4d ab       	addi r13,-12
     cfc:	7d f5       	stw r13,r7
     cfe:	0d 0f       	ldli r13,-16
     d00:	d0 f0       	ldw r0,r13
     d02:	80 ab       	addi r0,-8
     d04:	03 e0       	mov r3,r0
     d06:	31 f5       	stw r1,r3
     d08:	0d 0f       	ldli r13,-16
     d0a:	d0 f0       	ldw r0,r13
     d0c:	70 ab       	addi r0,-9
     d0e:	01 e0       	mov r1,r0
     d10:	12 f7       	stb r2,r1
     d12:	0d 0f       	ldli r13,-16
     d14:	d0 f0       	ldw r0,r13
     d16:	80 ab       	addi r0,-8
     d18:	02 e0       	mov r2,r0
     d1a:	20 f0       	ldw r0,r2
     d1c:	03 e0       	mov r3,r0
     d1e:	30 f0       	ldw r0,r3
     d20:	01 e0       	mov r1,r0
     d22:	61 a8       	addi r1,6
     d24:	0d 0f       	ldli r13,-16
     d26:	d0 f0       	ldw r0,r13
     d28:	c0 ab       	addi r0,-4
     d2a:	02 e0       	mov r2,r0
     d2c:	21 f5       	stw r1,r2
     d2e:	0d 0f       	ldli r13,-16
     d30:	d0 f0       	ldw r0,r13
     d32:	70 ab       	addi r0,-9
     d34:	03 e0       	mov r3,r0
     d36:	30 f4       	ldbu r0,r3
     d38:	f1 03       	ldli r1,63
     d3a:	10 e5       	and r0,r1
     d3c:	01 e0       	mov r1,r0
     d3e:	00 0c       	ldli r0,-64
     d40:	10 e6       	or r0,r1
     d42:	01 e0       	mov r1,r0
     d44:	0d 0f       	ldli r13,-16
     d46:	d0 f0       	ldw r0,r13
     d48:	c0 ab       	addi r0,-4
     d4a:	02 e0       	mov r2,r0
     d4c:	20 f0       	ldw r0,r2
     d4e:	03 e0       	mov r3,r0
     d50:	31 f7       	stb r1,r3
     d52:	0d 0f       	ldli r13,-16
     d54:	d0 f0       	ldw r0,r13
     d56:	80 ab       	addi r0,-8
     d58:	01 e0       	mov r1,r0
     d5a:	10 f0       	ldw r0,r1
     d5c:	02 e0       	mov r2,r0
     d5e:	20 f0       	ldw r0,r2
     d60:	01 e0       	mov r1,r0
     d62:	71 a8       	addi r1,7
     d64:	0d 0f       	ldli r13,-16
     d66:	d0 f0       	ldw r0,r13
     d68:	c0 ab       	addi r0,-4
     d6a:	03 e0       	mov r3,r0
     d6c:	31 f5       	stw r1,r3
     d6e:	0d 0f       	ldli r13,-16
     d70:	d0 f0       	ldw r0,r13
     d72:	c0 ab       	addi r0,-4
     d74:	01 e0       	mov r1,r0
     d76:	10 f0       	ldw r0,r1
     d78:	02 e0       	mov r2,r0
     d7a:	20 f4       	ldbu r0,r2
     d7c:	83 01       	ldli r3,24
     d7e:	30 a0       	sl r0,r3
     d80:	81 01       	ldli r1,24
     d82:	10 a2       	sr r0,r1
     d84:	47 0f       	ldli r7,-12
     d86:	7d f0       	ldw r13,r7
     d88:	cd a8       	addi r13,12
     d8a:	7d f5       	stw r13,r7
     d8c:	07 0f       	ldli r7,-16
     d8e:	0d 4c       	ldfpz_inc r13,0
     d90:	7d f5       	stw r13,r7
     d92:	0e f8       	rts
     d94:	07 0f       	ldli r7,-16
     d96:	7d f0       	ldw r13,r7
     d98:	fd 5f       	stfpz_dec r13,-1
     d9a:	47 0f       	ldli r7,-12
     d9c:	7d f0       	ldw r13,r7
     d9e:	07 0f       	ldli r7,-16
     da0:	7d f5       	stw r13,r7
     da2:	47 0f       	ldli r7,-12
     da4:	7d f0       	ldw r13,r7
     da6:	8d ab       	addi r13,-8
     da8:	7d f5       	stw r13,r7
     daa:	0d 0f       	ldli r13,-16
     dac:	d0 f0       	ldw r0,r13
     dae:	c0 ab       	addi r0,-4
     db0:	04 e0       	mov r4,r0
     db2:	41 f5       	stw r1,r4
     db4:	0d 0f       	ldli r13,-16
     db6:	d0 f0       	ldw r0,r13
     db8:	b0 ab       	addi r0,-5
     dba:	01 e0       	mov r1,r0
     dbc:	12 f7       	stb r2,r1
     dbe:	0d 0f       	ldli r13,-16
     dc0:	d0 f0       	ldw r0,r13
     dc2:	a0 ab       	addi r0,-6
     dc4:	04 e0       	mov r4,r0
     dc6:	43 f7       	stb r3,r4
     dc8:	47 0f       	ldli r7,-12
     dca:	7d f0       	ldw r13,r7
     dcc:	8d a8       	addi r13,8
     dce:	7d f5       	stw r13,r7
     dd0:	07 0f       	ldli r7,-16
     dd2:	0d 4c       	ldfpz_inc r13,0
     dd4:	7d f5       	stw r13,r7
     dd6:	0e f8       	rts
     dd8:	02 b8       	cmpi_eq r2,0
     dda:	11 9c       	jmpi_ct 17
     ddc:	01 b8       	cmpi_eq r1,0
     dde:	10 d0       	mov_ct r0,r1
     de0:	0e 9c       	jmpi_ct 14
     de2:	2d e0       	mov r13,r2
     de4:	f2 b7       	btest r2,0x1f
     de6:	12 81       	sli_cf r2,0x1
     de8:	fe 8f       	jmpi_cf -2
     dea:	00 00       	ldli r0,0
     dec:	d2 b3       	cmpu_lt r2,r13
     dee:	07 9c       	jmpi_ct 7
     df0:	10 a1       	sli r0,0x1
     df2:	12 b4       	cmpu_gt r2,r1
     df4:	21 c3       	sub_cf r1,r2
     df6:	10 88       	addi_cf r0,1
     df8:	12 a3       	sri r2,0x1
     dfa:	f9 af       	jmpi -7
     dfc:	0e f8       	rts
     dfe:	02 b8       	cmpi_eq r2,0
     e00:	0e 9c       	jmpi_ct 14
     e02:	01 b8       	cmpi_eq r1,0
     e04:	10 d0       	mov_ct r0,r1
     e06:	0b 9c       	jmpi_ct 11
     e08:	2d e0       	mov r13,r2
     e0a:	f2 b7       	btest r2,0x1f
     e0c:	12 81       	sli_cf r2,0x1
     e0e:	fe 8f       	jmpi_cf -2
     e10:	d2 b3       	cmpu_lt r2,r13
     e12:	05 9c       	jmpi_ct 5
     e14:	12 b4       	cmpu_gt r2,r1
     e16:	21 c3       	sub_cf r1,r2
     e18:	12 a3       	sri r2,0x1
     e1a:	fb af       	jmpi -5
     e1c:	10 e0       	mov r0,r1
     e1e:	0e f8       	rts
     e20:	15 e0       	mov r5,r1
     e22:	03 b8       	cmpi_eq r3,0
     e24:	0b 9c       	jmpi_ct 11
     e26:	04 00       	ldli r4,0
     e28:	51 e0       	mov r1,r5
     e2a:	41 e1       	add r1,r4
     e2c:	20 e0       	mov r0,r2
     e2e:	40 e1       	add r0,r4
     e30:	00 f4       	ldbu r0,r0
     e32:	10 f7       	stb r0,r1
     e34:	14 a8       	addi r4,1
     e36:	34 b0       	cmp_eq r4,r3
     e38:	f8 8f       	jmpi_cf -8
     e3a:	50 e0       	mov r0,r5
     e3c:	0e f8       	rts
     e3e:	10 e0       	mov r0,r1
     e40:	03 b8       	cmpi_eq r3,0
     e42:	07 9c       	jmpi_ct 7
     e44:	14 e0       	mov r4,r1
     e46:	13 e1       	add r3,r1
     e48:	42 f7       	stb r2,r4
     e4a:	14 a8       	addi r4,1
     e4c:	34 b0       	cmp_eq r4,r3
     e4e:	fd 8f       	jmpi_cf -3
     e50:	0e f8       	rts
     e52:	10 f3       	ldb r0,r1
     e54:	00 b8       	cmpi_eq r0,0
     e56:	08 9c       	jmpi_ct 8
     e58:	12 e0       	mov r2,r1
     e5a:	12 a8       	addi r2,1
     e5c:	20 f3       	ldb r0,r2
     e5e:	00 b8       	cmpi_eq r0,0
     e60:	fd 8f       	jmpi_cf -3
     e62:	20 e0       	mov r0,r2
     e64:	10 e3       	sub r0,r1
     e66:	0e f8       	rts
     e68:	00 fe       	nop
     e6a:	ff af       	jmpi -1
     e6c:	80 08       	ldli r0,-120
     e6e:	02 02       	ldli r2,32
     e70:	02 f7       	stb r2,r0
     e72:	90 ab       	addi r0,-7
     e74:	00 f4       	ldbu r0,r0
     e76:	20 b6       	btest r0,0x2
     e78:	06 9c       	jmpi_ct 6
     e7a:	00 fe       	nop
     e7c:	10 08       	ldli r0,-127
     e7e:	00 f4       	ldbu r0,r0
     e80:	20 b6       	btest r0,0x2
     e82:	fc 8f       	jmpi_cf -4
     e84:	10 08       	ldli r0,-127
     e86:	02 f4       	ldbu r2,r0
     e88:	00 f4       	ldbu r0,r0
     e8a:	50 b6       	btest r0,0x5
     e8c:	0d 8c       	jmpi_cf 13
     e8e:	22 00       	ldli r2,2
     e90:	10 08       	ldli r0,-127
     e92:	00 f4       	ldbu r0,r0
     e94:	30 b6       	btest r0,0x3
     e96:	0c 8c       	jmpi_cf 12
     e98:	60 08       	ldli r0,-122
     e9a:	00 f2       	ldhu r0,r0
     e9c:	80 08       	ldli r0,-120
     e9e:	81 02       	ldli r1,40
     ea0:	01 f7       	stb r1,r0
     ea2:	32 00       	ldli r2,3
     ea4:	0d ac       	jmpi 13
     ea6:	62 a3       	sri r2,0x6
     ea8:	14 00       	ldli r4,1
     eaa:	42 e5       	and r2,r4
     eac:	f2 af       	jmpi -14
     eae:	60 08       	ldli r0,-122
     eb0:	03 f2       	ldhu r3,r0
     eb2:	20 a8       	addi r0,2
     eb4:	84 02       	ldli r4,40
     eb6:	04 f7       	stb r4,r0
     eb8:	02 b8       	cmpi_eq r2,0
     eba:	02 8c       	jmpi_cf 2
     ebc:	13 f7       	stb r3,r1
     ebe:	20 e0       	mov r0,r2
     ec0:	0e f8       	rts
     ec2:	00 00       	ldli r0,0
     ec4:	0e f8       	rts
     ec6:	f9 5f       	stfpz_dec r9,-1
     ec8:	fe 5f       	stfpz_dec r14,-1
     eca:	07 0f       	ldli r7,-16
     ecc:	7d f0       	ldw r13,r7
     ece:	fd 5f       	stfpz_dec r13,-1
     ed0:	47 0f       	ldli r7,-12
     ed2:	7d f0       	ldw r13,r7
     ed4:	07 0f       	ldli r7,-16
     ed6:	7d f5       	stw r13,r7
     ed8:	0d 0f       	ldli r13,-16
     eda:	d0 f0       	ldw r0,r13
     edc:	c0 a8       	addi r0,12
     ede:	07 f0       	ldw r7,r0
     ee0:	03 e0       	mov r3,r0
     ee2:	83 a8       	addi r3,8
     ee4:	31 f0       	ldw r1,r3
     ee6:	f4 00       	ldli r4,15
     ee8:	41 e5       	and r1,r4
     eea:	16 e0       	mov r6,r1
     eec:	04 e0       	mov r4,r0
     eee:	44 a8       	addi r4,4
     ef0:	42 f0       	ldw r2,r4
     ef2:	02 b8       	cmpi_eq r2,0
     ef4:	60 9c       	jmpi_ct 96
     ef6:	35 08       	ldli r5,-125
     ef8:	09 00       	ldli r9,0
     efa:	59 f7       	stb r9,r5
     efc:	07 f5       	stw r7,r0
     efe:	30 f0       	ldw r0,r3
     f00:	09 0f       	ldli r9,-16
     f02:	90 e5       	and r0,r9
     f04:	10 e6       	or r0,r1
     f06:	30 f5       	stw r0,r3
     f08:	42 f5       	stw r2,r4
     f0a:	33 f0       	ldw r3,r3
     f0c:	01 03       	ldli r1,48
     f0e:	31 e5       	and r1,r3
     f10:	01 b8       	cmpi_eq r1,0
     f12:	47 8c       	jmpi_cf 71
     f14:	63 b6       	btest r3,0x6
     f16:	3c 9c       	jmpi_ct 60
     f18:	f3 00       	ldli r3,15
     f1a:	63 e5       	and r3,r6
     f1c:	33 b6       	btest r3,0x3
     f1e:	31 9c       	jmpi_ct 49
     f20:	23 b6       	btest r3,0x2
     f22:	28 9c       	jmpi_ct 40
     f24:	13 b6       	btest r3,0x1
     f26:	1f 9c       	jmpi_ct 31
     f28:	03 b6       	btest r3,0x0
     f2a:	18 9c       	jmpi_ct 24
     f2c:	31 08       	ldli r1,-125
     f2e:	10 f4       	ldbu r0,r1
     f30:	40 a4       	bset r0,0x4
     f32:	10 f7       	stb r0,r1
     f34:	71 e0       	mov r1,r7
     f36:	00 10       	ldhi r0,0
     f38:	00 20       	ldliu r0,0x0
     f3a:	80 a1       	sli r0,0x8
     f3c:	60 20       	ldliu r0,0x6
     f3e:	80 a1       	sli r0,0x8
     f40:	c0 2e       	ldliu r0,0xec
     f42:	00 ee       	jsr r0
     f44:	02 e0       	mov r2,r0
     f46:	42 a1       	sli r2,0x4
     f48:	44 01       	ldli r4,20
     f4a:	40 a0       	sl r0,r4
     f4c:	85 01       	ldli r5,24
     f4e:	50 a2       	sr r0,r5
     f50:	51 08       	ldli r1,-123
     f52:	10 f7       	stb r0,r1
     f54:	40 08       	ldli r0,-124
     f56:	02 f7       	stb r2,r0
     f58:	2e ac       	jmpi 46
     f5a:	31 08       	ldli r1,-125
     f5c:	10 f4       	ldbu r0,r1
     f5e:	00 a4       	bset r0,0x0
     f60:	10 f7       	stb r0,r1
     f62:	e5 af       	jmpi -27
     f64:	31 08       	ldli r1,-125
     f66:	10 f4       	ldbu r0,r1
     f68:	10 a4       	bset r0,0x1
     f6a:	10 f7       	stb r0,r1
     f6c:	03 b6       	btest r3,0x0
     f6e:	df 8f       	jmpi_cf -33
     f70:	f5 af       	jmpi -11
     f72:	31 08       	ldli r1,-125
     f74:	10 f4       	ldbu r0,r1
     f76:	20 a4       	bset r0,0x2
     f78:	10 f7       	stb r0,r1
     f7a:	13 b6       	btest r3,0x1
     f7c:	d6 8f       	jmpi_cf -42
     f7e:	f3 af       	jmpi -13
     f80:	31 08       	ldli r1,-125
     f82:	10 f4       	ldbu r0,r1
     f84:	30 a4       	bset r0,0x3
     f86:	10 f7       	stb r0,r1
     f88:	23 b6       	btest r3,0x2
     f8a:	cd 8f       	jmpi_cf -51
     f8c:	f3 af       	jmpi -13
     f8e:	31 08       	ldli r1,-125
     f90:	10 f4       	ldbu r0,r1
     f92:	50 a4       	bset r0,0x5
     f94:	10 f7       	stb r0,r1
     f96:	f3 00       	ldli r3,15
     f98:	63 e5       	and r3,r6
     f9a:	33 b6       	btest r3,0x3
     f9c:	c2 8f       	jmpi_cf -62
     f9e:	f1 af       	jmpi -15
     fa0:	50 f4       	ldbu r0,r5
     fa2:	08 08       	ldli r8,-128
     fa4:	80 e6       	or r0,r8
     fa6:	50 f7       	stb r0,r5
     fa8:	01 b9       	cmpi_eq r1,16
     faa:	b5 8f       	jmpi_cf -75
     fac:	50 f4       	ldbu r0,r5
     fae:	60 a4       	bset r0,0x6
     fb0:	50 f7       	stb r0,r5
     fb2:	b1 af       	jmpi -79
     fb4:	07 0f       	ldli r7,-16
     fb6:	0d 4c       	ldfpz_inc r13,0
     fb8:	7d f5       	stw r13,r7
     fba:	0e 4c       	ldfpz_inc r14,0
     fbc:	09 4c       	ldfpz_inc r9,0
     fbe:	0e f8       	rts
     fc0:	00 00       	ldli r0,0
     fc2:	0e f8       	rts
     fc4:	f9 5f       	stfpz_dec r9,-1
     fc6:	fa 5f       	stfpz_dec r10,-1
     fc8:	fb 5f       	stfpz_dec r11,-1
     fca:	fc 5f       	stfpz_dec r12,-1
     fcc:	fe 5f       	stfpz_dec r14,-1
     fce:	07 0f       	ldli r7,-16
     fd0:	7d f0       	ldw r13,r7
     fd2:	fd 5f       	stfpz_dec r13,-1
     fd4:	47 0f       	ldli r7,-12
     fd6:	7d f0       	ldw r13,r7
     fd8:	07 0f       	ldli r7,-16
     fda:	7d f5       	stw r13,r7
     fdc:	47 0f       	ldli r7,-12
     fde:	7d f0       	ldw r13,r7
     fe0:	cd ab       	addi r13,-4
     fe2:	7d f5       	stw r13,r7
     fe4:	2c e0       	mov r12,r2
     fe6:	3b e0       	mov r11,r3
     fe8:	03 38       	cmpi_gt r3,0
     fea:	17 8c       	jmpi_cf 23
     fec:	09 00       	ldli r9,0
     fee:	0d 0f       	ldli r13,-16
     ff0:	da f0       	ldw r10,r13
     ff2:	fa ab       	addi r10,-1
     ff4:	a1 e0       	mov r1,r10
     ff6:	02 10       	ldhi r2,0
     ff8:	02 20       	ldliu r2,0x0
     ffa:	82 a1       	sli r2,0x8
     ffc:	72 20       	ldliu r2,0x7
     ffe:	82 a1       	sli r2,0x8
    1000:	62 23       	ldliu r2,0x36
    1002:	02 ee       	jsr r2
    1004:	00 b8       	cmpi_eq r0,0
    1006:	0a 8c       	jmpi_cf 10
    1008:	90 e0       	mov r0,r9
    100a:	c0 e1       	add r0,r12
    100c:	a1 f4       	ldbu r1,r10
    100e:	01 f7       	stb r1,r0
    1010:	19 a8       	addi r9,1
    1012:	9b b0       	cmp_eq r11,r9
    1014:	f0 8f       	jmpi_cf -16
    1016:	02 ac       	jmpi 2
    1018:	09 00       	ldli r9,0
    101a:	90 e0       	mov r0,r9
    101c:	47 0f       	ldli r7,-12
    101e:	7d f0       	ldw r13,r7
    1020:	4d a8       	addi r13,4
    1022:	7d f5       	stw r13,r7
    1024:	07 0f       	ldli r7,-16
    1026:	0d 4c       	ldfpz_inc r13,0
    1028:	7d f5       	stw r13,r7
    102a:	0e 4c       	ldfpz_inc r14,0
    102c:	0c 4c       	ldfpz_inc r12,0
    102e:	0b 4c       	ldfpz_inc r11,0
    1030:	0a 4c       	ldfpz_inc r10,0
    1032:	09 4c       	ldfpz_inc r9,0
    1034:	0e f8       	rts
    1036:	f9 5f       	stfpz_dec r9,-1
    1038:	fa 5f       	stfpz_dec r10,-1
    103a:	fb 5f       	stfpz_dec r11,-1
    103c:	fc 5f       	stfpz_dec r12,-1
    103e:	fe 5f       	stfpz_dec r14,-1
    1040:	07 0f       	ldli r7,-16
    1042:	7d f0       	ldw r13,r7
    1044:	fd 5f       	stfpz_dec r13,-1
    1046:	47 0f       	ldli r7,-12
    1048:	7d f0       	ldw r13,r7
    104a:	07 0f       	ldli r7,-16
    104c:	7d f5       	stw r13,r7
    104e:	47 0f       	ldli r7,-12
    1050:	7d f0       	ldw r13,r7
    1052:	cd ab       	addi r13,-4
    1054:	7d f5       	stw r13,r7
    1056:	2b e0       	mov r11,r2
    1058:	3c e0       	mov r12,r3
    105a:	03 38       	cmpi_gt r3,0
    105c:	1f 8c       	jmpi_cf 31
    105e:	0a 00       	ldli r10,0
    1060:	0d 0f       	ldli r13,-16
    1062:	d9 f0       	ldw r9,r13
    1064:	f9 ab       	addi r9,-1
    1066:	91 e0       	mov r1,r9
    1068:	02 10       	ldhi r2,0
    106a:	02 20       	ldliu r2,0x0
    106c:	82 a1       	sli r2,0x8
    106e:	72 20       	ldliu r2,0x7
    1070:	82 a1       	sli r2,0x8
    1072:	62 23       	ldliu r2,0x36
    1074:	02 ee       	jsr r2
    1076:	00 b8       	cmpi_eq r0,0
    1078:	0d 8c       	jmpi_cf 13
    107a:	91 f4       	ldbu r1,r9
    107c:	90 f3       	ldb r0,r9
    107e:	d0 b8       	cmpi_eq r0,13
    1080:	07 9c       	jmpi_ct 7
    1082:	a0 b8       	cmpi_eq r0,10
    1084:	07 9c       	jmpi_ct 7
    1086:	b0 e0       	mov r0,r11
    1088:	a0 e1       	add r0,r10
    108a:	01 f7       	stb r1,r0
    108c:	1a a8       	addi r10,1
    108e:	ca b1       	cmp_lt r10,r12
    1090:	eb 9f       	jmpi_ct -21
    1092:	ab e1       	add r11,r10
    1094:	02 00       	ldli r2,0
    1096:	b2 f7       	stb r2,r11
    1098:	02 ac       	jmpi 2
    109a:	0a 00       	ldli r10,0
    109c:	a0 e0       	mov r0,r10
    109e:	47 0f       	ldli r7,-12
    10a0:	7d f0       	ldw r13,r7
    10a2:	4d a8       	addi r13,4
    10a4:	7d f5       	stw r13,r7
    10a6:	07 0f       	ldli r7,-16
    10a8:	0d 4c       	ldfpz_inc r13,0
    10aa:	7d f5       	stw r13,r7
    10ac:	0e 4c       	ldfpz_inc r14,0
    10ae:	0c 4c       	ldfpz_inc r12,0
    10b0:	0b 4c       	ldfpz_inc r11,0
    10b2:	0a 4c       	ldfpz_inc r10,0
    10b4:	09 4c       	ldfpz_inc r9,0
    10b6:	0e f8       	rts
    10b8:	03 38       	cmpi_gt r3,0
    10ba:	27 8c       	jmpi_cf 39
    10bc:	04 00       	ldli r4,0
    10be:	40 e0       	mov r0,r4
    10c0:	20 e1       	add r0,r2
    10c2:	01 f4       	ldbu r1,r0
    10c4:	10 08       	ldli r0,-127
    10c6:	00 f4       	ldbu r0,r0
    10c8:	10 b6       	btest r0,0x1
    10ca:	06 9c       	jmpi_ct 6
    10cc:	00 fe       	nop
    10ce:	10 08       	ldli r0,-127
    10d0:	00 f4       	ldbu r0,r0
    10d2:	10 b6       	btest r0,0x1
    10d4:	fc 8f       	jmpi_cf -4
    10d6:	10 e0       	mov r0,r1
    10d8:	85 01       	ldli r5,24
    10da:	50 a0       	sl r0,r5
    10dc:	50 e8       	sra r0,r5
    10de:	61 08       	ldli r1,-122
    10e0:	10 f6       	sth r0,r1
    10e2:	80 08       	ldli r0,-120
    10e4:	81 01       	ldli r1,24
    10e6:	01 f7       	stb r1,r0
    10e8:	90 ab       	addi r0,-7
    10ea:	00 f4       	ldbu r0,r0
    10ec:	10 b6       	btest r0,0x1
    10ee:	06 9c       	jmpi_ct 6
    10f0:	00 fe       	nop
    10f2:	10 08       	ldli r0,-127
    10f4:	00 f4       	ldbu r0,r0
    10f6:	10 b6       	btest r0,0x1
    10f8:	fc 8f       	jmpi_cf -4
    10fa:	80 08       	ldli r0,-120
    10fc:	05 00       	ldli r5,0
    10fe:	05 f7       	stb r5,r0
    1100:	14 a8       	addi r4,1
    1102:	43 b0       	cmp_eq r3,r4
    1104:	dd 8f       	jmpi_cf -35
    1106:	02 ac       	jmpi 2
    1108:	03 00       	ldli r3,0
    110a:	30 e0       	mov r0,r3
    110c:	0e f8       	rts

Disassembly of section .rodata:

00000000 <.rodata>:
   0:	0a 0d       	ldli r10,-48
   2:	48 61       	ldfpw r8,20
   4:	6c 6c       	ldfpz r12,6
   6:	6f 20       	ldliu r15,0x6
   8:	57 65       	ldfpx r7,21
   a:	6c 74       	stfpx r12,6
   c:	21 0a       	ldli r1,-94
   e:	0d 00       	ldli r13,0
  10:	00 00       	ldli r0,0
  12:	00 00       	ldli r0,0
  14:	00 00       	ldli r0,0
  16:	00 00       	ldli r0,0
  18:	00 00       	ldli r0,0
  1a:	00 00       	ldli r0,0
  1c:	00 00       	ldli r0,0
  1e:	00 00       	ldli r0,0
  20:	20 50       	stfpw_inc r0,2
  22:	75 73       	stfpw r5,-9
  24:	68 62       	ldfpw r8,-26
  26:	75 74       	stfpx r5,7
  28:	74 6f       	ldfpz r4,-9
  2a:	6e 20       	ldliu r14,0x6
  2c:	31 20       	ldliu r1,0x3
  2e:	00 00       	ldli r0,0
  30:	00 00       	ldli r0,0
  32:	00 00       	ldli r0,0
  34:	00 00       	ldli r0,0
  36:	00 00       	ldli r0,0
  38:	00 00       	ldli r0,0
  3a:	00 00       	ldli r0,0
  3c:	00 00       	ldli r0,0
  3e:	00 00       	ldli r0,0
  40:	20 50       	stfpw_inc r0,2
  42:	75 73       	stfpw r5,-9
  44:	68 62       	ldfpw r8,-26
  46:	75 74       	stfpx r5,7
  48:	74 6f       	ldfpz r4,-9
  4a:	6e 20       	ldliu r14,0x6
  4c:	32 20       	ldliu r2,0x3
  4e:	00 00       	ldli r0,0
  50:	00 00       	ldli r0,0
  52:	00 00       	ldli r0,0
  54:	00 00       	ldli r0,0
  56:	00 00       	ldli r0,0
  58:	00 00       	ldli r0,0
  5a:	00 00       	ldli r0,0
  5c:	00 00       	ldli r0,0
  5e:	00 00       	ldli r0,0
  60:	20 50       	stfpw_inc r0,2
  62:	75 73       	stfpw r5,-9
  64:	68 62       	ldfpw r8,-26
  66:	75 74       	stfpx r5,7
  68:	74 6f       	ldfpz r4,-9
  6a:	6e 20       	ldliu r14,0x6
  6c:	33 20       	ldliu r3,0x3
  6e:	00 00       	ldli r0,0
  70:	00 00       	ldli r0,0
  72:	00 00       	ldli r0,0
  74:	00 00       	ldli r0,0
  76:	00 00       	ldli r0,0
  78:	00 00       	ldli r0,0
  7a:	00 00       	ldli r0,0
  7c:	00 00       	ldli r0,0
  7e:	00 00       	ldli r0,0
  80:	0d 00       	ldli r13,0
  82:	00 00       	ldli r0,0
  84:	00 00       	ldli r0,0
  86:	00 00       	ldli r0,0
  88:	00 00       	ldli r0,0
  8a:	00 00       	ldli r0,0
  8c:	00 00       	ldli r0,0
  8e:	00 00       	ldli r0,0
  90:	00 00       	ldli r0,0
  92:	00 00       	ldli r0,0
  94:	00 00       	ldli r0,0
  96:	00 00       	ldli r0,0
  98:	00 00       	ldli r0,0
  9a:	00 00       	ldli r0,0
  9c:	00 00       	ldli r0,0
  9e:	00 00       	ldli r0,0

Disassembly of section .bss:

000000a0 <.bss>:
  a0:	00 00       	ldli r0,0
  a2:	00 00       	ldli r0,0
  a4:	00 00       	ldli r0,0
  a6:	00 00       	ldli r0,0
  a8:	00 00       	ldli r0,0
  aa:	00 00       	ldli r0,0
