
main:     file format elf32-scarts_32
main
architecture: scarts_32, flags 0x00000102:
EXEC_P, D_PAGED
start address 0x00000000

Program Header:
    LOAD off    0x00000078 vaddr 0x00000000 paddr 0x00000000 align 2**3
         filesz 0x000000a0 memsz 0x000000ac flags rw-
    LOAD off    0x00000118 vaddr 0x00000000 paddr 0x80000000 align 2**0
         filesz 0x000010fa memsz 0x000010fa flags r-x

Sections:
Idx Name          Size      VMA       LMA       File off  Algn  Flags
  0 .text         000010fa  00000000  80000000  00000118  2**0  CONTENTS, ALLOC, LOAD, READONLY, CODE
  1 .rodata       000000a0  00000000  00000000  00000078  2**0  CONTENTS, ALLOC, LOAD, READONLY, DATA
  2 .bss          0000000c  000000a0  000000a0  00000118  2**3  ALLOC
SYMBOL TABLE:
no symbols


Contents of section .text:
 0000 05100520 85a10520 85a1052a 06100620  ... ... ...*... 
 0010 86a10620 86a1c62a 65b0069c 070057f5  ... ...*e.....W.
 0020 45a865b1 fd9f0010 00200110 01200210  E.e...... ... ..
 0030 02200310 03200410 04200510 05200610  . ... ... ... ..
 0040 06200710 07200810 08200910 09200a10  . ... ... ... ..
 0050 0a200b10 0b200c10 0c200d10 0d200e10  . ... ... ... ..
 0060 0e200f10 0f20870e 0d100d20 7df5c70e  . ... ..... }...
 0070 0d100d20 7df5070f 0d100d20 7df5470f  ... }...... }.G.
 0080 0d100d20 7df50d10 2d208da1 0d208da1  ... }...- ... ..
 0090 0d20070f 7df5470f 7df50d10 0d208da1  . ..}.G.}.... ..
 00a0 0d208da1 cd250dee 01e00d10 0d208da1  . ...%....... ..
 00b0 7d208da1 ad220dee f95ffa5f fb5ffc5f  } ..."..._._._._
 00c0 fe5f070f 7df0fd5f 470f7df0 070f7df5  ._..}.._G.}...}.
 00d0 470f7df0 0605f61f 6de17df5 0d0fdbf0  G.}.....m.}.....
 00e0 400d0be1 09100920 89a17920 89a16920  @...... ..y ..i 
 00f0 b1e00210 022082a1 022082a1 02200301  ..... ... ... ..
 0100 09ee0d0f d0f040aa 020002f5 40a802f5  ......@.....@...
 0110 40a802f5 40a802f5 0d0fd1f0 400b01e1  @...@.......@...
 0120 02100220 82a10220 82a10222 f30009ee  ... ... ..."....
 0130 0a100a20 8aa17a20 8aa15a21 410b0d0f  ... ..z ..Z!A...
 0140 ddf0d1e1 f1a80200 13010aee 0d0fd1f0  ................
 0150 420921e1 02100220 82a10220 82a10224  B.!.... ... ...$
 0160 f30009ee 41090d0f ddf0d1e1 f1a80200  ....A...........
 0170 13010aee 0d0fd1f0 4307f31f 31e10210  ........C...1...
 0180 022082a1 022082a1 0226f300 09ee4107  . ... ...&....A.
 0190 f11f0d0f ddf0d1e1 f1a80200 13010aee  ................
 01a0 0d0fd0f0 4405f41f 40e1c4ab 0d0fddf0  ....D...@.......
 01b0 d4e140f5 00100020 80a10020 80a10028  ..@.... ... ...(
 01c0 02f441f0 12f711a8 10a800f4 10f7f1ab  ..A.............
 01d0 41f521a8 0200e301 0aee2310 a32f83a1  A.!.......#../..
 01e0 032f83a1 0328d37b 04101420 84a1242c  ./...(.{... ..$,
 01f0 84a10420 e47b0d0f d0f0c0ab 01f0030c  ... .{..........
 0200 31e57400 41e651a4 61a601f5 4d0fd0f0  1.t.A.Q.a...M...
 0210 40ab4d0f d0f52210 a22f82a1 022f82a1  @.M..."../.../..
 0220 0228027c 40a80410 142084a1 242c84a1  .(.|@.... ..$,..
 0230 042004f5 40a801f5 00100020 80a17020  . ..@...... ..p 
 0240 80a19025 00ee4d0f d0f0c0a8 4d0fd0f5  ...%..M.....M...
 0250 01100120 81a10120 81a1012a 020ee21f  ... ... ...*....
 0260 83000010 002080a1 202080a1 a02400ee  ..... ..  ...$..
 0270 01100120 81a10120 81a1012a 02002304  ... ... ...*..#.
 0280 00100020 80a15020 80a1c02f 00eeb1e0  ... ..P .../....
 0290 02100220 82a17220 82a1f221 02ee0100  ... ..r ...!....
 02a0 b2e003e0 04100420 84a18420 84a12425  ....... ... ..$%
 02b0 04ee0900 0c100c20 8ca12c20 8ca14c20  ....... .., ..L 
 02c0 01100120 81a11120 81a1612f 01ee0be0  ... ... ..a/....
 02d0 09b0079c 20b6709c 1bb6559c 0bb63a9c  .... .p...U...:.
 02e0 0a000900 91e00cee 810110a0 10a210b8  ................
 02f0 90900ad6 19a829b9 f68f0205 f21f0d0f  ......).........
 0300 ddf0d2e1 21f00310 032083a1 732083a1  ....!.... ..s ..
 0310 f32103ee 01000405 f41f0d0f ddf0d4e1  .!..............
 0320 42f003e0 04100420 84a18420 84a12425  B...... ... ..$%
 0330 04ee2110 412181a1 012081a1 0120a1e6  ..!.A!... ... ..
 0340 00100020 80a12020 80a18021 00eeb9e0  ... ..  ...!....
 0350 b8af0d0f d1f0400b 01e10210 022082a1  ......@...... ..
 0360 722082a1 f22102ee 01000d0f d2f0430b  r ...!........C.
 0370 32e103e0 04100420 84a18420 84a12425  2...... ... ..$%
 0380 04eeafaf 0d0fd1f0 400901e1 02100220  ........@...... 
 0390 82a17220 82a1f221 02ee0100 0d0fd2f0  ..r ...!........
 03a0 430932e1 03e00410 042084a1 842084a1  C.2...... ... ..
 03b0 242504ee 94af0d0f d1f04207 f21f21e1  $%........B...!.
 03c0 03100320 83a17320 83a1f321 03ee0100  ... ..s ...!....
 03d0 0d0fd2f0 4407f41f 42e103e0 04100420  ....D...B...... 
 03e0 84a18420 84a12425 04ee77af 4208e21f  ... ..$%..w.B...
 03f0 21f001ec 130031e5 20f010b6 118420f0  !.....1. ..... .
 0400 20b62184 10e00ef8 4008e01f 02f00300   .!.....@.......
 0410 32e90010 302080a1 f02f80a1 f02f02e5  2...0 .../.../..
 0420 100010a0 02e502b8 029c1300 30e00ef8  ............0...
 0430 12e05001 02a04008 e01f02f5 51a10001  ..P...@.....Q...
 0440 01a28008 e01f01f5 0ef812f5 0ef80ef8  ................
 0450 11f021a8 10f400a4 10f70ef8 3006e01f  ..!.........0...
 0460 01f011a6 01f501f0 01a401f5 0ef83006  ..............0.
 0470 e01f01f0 01a601f5 01f011a4 01f50ef8  ................
 0480 4006e01f 01f58001 02a002a2 8006e01f  @...............
 0490 02f50ef8 070f7df0 fd5f470f 7df0070f  ......}.._G.}...
 04a0 7df5470f 7df04dab 7df50d0f d0f0c0ab  }.G.}.M.}.......
 04b0 04e041f5 0d0fd0f0 80ab01e0 12f50d0f  ..A.............
 04c0 d0f070ab 02e023f7 0d0fd0f0 c0ab04e0  ..p...#.........
 04d0 41f00d0f d0f080ab 02e020f0 14e040f5  A......... ...@.
 04e0 0d0fd0f0 c0ab01e0 10f001e0 41a80d0f  ............A...
 04f0 d0f070ab 02e020f4 14e040f7 470f7df0  ..p... ...@.G.}.
 0500 cda87df5 070f0d4c 7df50ef8 070f7df0  ..}....L}.....}.
 0510 fd5f470f 7df0070f 7df5470f 7df0cdab  ._G.}...}.G.}...
 0520 7df50d0f d0f0c0ab 02e021f5 470f7df0  }.........!.G.}.
 0530 4da87df5 070f0d4c 7df50ef8 070f7df0  M.}....L}.....}.
 0540 fd5f470f 7df0070f 7df5470f 7df04dab  ._G.}...}.G.}.M.
 0550 7df50d0f d0f080ab 03e031f5 0d0fd0f0  }.........1.....
 0560 60ab01e0 12f60d0f d0f080ab 02e020f0  `............. .
 0570 03e030f0 01e041a8 0d0fd0f0 c0ab02e0  ..0...A.........
 0580 21f50d0f d0f0c0ab 03e031f0 0d0fd0f0  !.........1.....
 0590 60ab02e0 20f213e0 30f6470f 7df0cda8  `... ...0.G.}...
 05a0 7df5070f 0d4c7df5 0ef8070f 7df0fd5f  }....L}.....}.._
 05b0 470f7df0 070f7df5 470f7df0 4dab7df5  G.}...}.G.}.M.}.
 05c0 0d0fd0f0 80ab04e0 41f50d0f d0f070ab  ........A.....p.
 05d0 01e012f7 0d0fd0f0 60ab02e0 23f70d0f  ........`...#...
 05e0 d0f080ab 04e040f0 01e010f0 01e061a8  ......@.......a.
 05f0 0d0fd0f0 c0ab02e0 21f50d0f d0f070ab  ........!.....p.
 0600 04e040f4 f10310e5 60a401e0 0d0fd0f0  ..@.....`.......
 0610 c0ab02e0 20f004e0 41f70d0f d0f080ab  .... ...A.......
 0620 01e010f0 02e020f0 01e071a8 0d0fd0f0  ...... ...q.....
 0630 c0ab04e0 41f50d0f d0f0c0ab 02e021f0  ....A.........!.
 0640 0d0fd0f0 60ab04e0 40f412e0 20f7470f  ....`...@... .G.
 0650 7df0cda8 7df5070f 0d4c7df5 0ef8fe5f  }...}....L}...._
 0660 070f7df0 fd5f470f 7df0070f 7df5470f  ..}.._G.}...}.G.
 0670 7df00dab 7df50d0f d0f080ab 04e041f5  }...}.........A.
 0680 0d0fd0f0 70ab01e0 12f70d0f d0f060ab  ....p.........`.
 0690 02e023f7 0d0fd1f0 c1ab0000 14e040f5  ..#...........@.
 06a0 0d0fd1f0 c1ab0000 12e020f5 51ac0d0f  .......... .Q...
 06b0 d0f0c0ab 04e040f0 01e00d0f d0f070ab  ......@.......p.
 06c0 02e020f4 10e104e0 0d0fd0f0 60ab01e0  .. .........`...
 06d0 10f48201 20a08101 10a2a200 03100320  .... .......... 
 06e0 83a16320 83a1532f 01e003ee 03e00d0f  ..c ..S/........
 06f0 d0f080ab 02e020f0 01e042e0 00100020  ...... ...B.... 
 0700 80a12020 80a1502d 00ee0d0f d4f064ab  ..  ..P-......d.
 0710 0d0fd0f0 60ab01e0 10f48201 20a08101  ....`....... ...
 0720 10a2a200 03100320 83a16320 83a1232e  ....... ..c ..#.
 0730 01e003ee 42e020f7 0d0fd1f0 c1ab0d0f  ....B. .........
 0740 d0f0c0ab 04e040f0 10a812e0 20f50d0f  ......@..... ...
 0750 d0f080ab 04e040f0 40a801e0 10f48201  ......@.@.......
 0760 20a08401 40a23d00 d0b4129c 0d0fd0f0   ...@.=.........
 0770 80ab01e0 10f040a8 02e020f4 04e08101  ......@... .....
 0780 14a0c47b c26b8401 42a2c27b 03ac3000  ...{.k..B..{..0.
 0790 c07b0d0f d0f0c0ab 01e010f0 c26b02b2  .{...........k..
 07a0 879f470f 7df00601 6de17df5 070f0d4c  ..G.}...m.}....L
 07b0 7df50e4c 0ef8fe5f 070f7df0 fd5f470f  }..L..._..}.._G.
 07c0 7df0070f 7df5470f 7df00dab 7df50d0f  }...}.G.}...}...
 07d0 d0f080ab 04e041f5 0d0fd0f0 70ab01e0  ......A.....p...
 07e0 12f70d0f d0f040ab 02e023f6 0d0fd1f0  ......@...#.....
 07f0 c1ab0000 14e040f5 0d0fd1f0 c1ab0000  ......@.........
 0800 12e020f5 51ac0d0f d0f0c0ab 04e040f0  .. .Q.........@.
 0810 01e00d0f d0f070ab 02e020f4 10e104e0  ......p... .....
 0820 0d0fd0f0 40ab01e0 10f20201 20a00101  ....@....... ...
 0830 10a2a200 03100320 83a16320 83a1532f  ....... ..c ..S/
 0840 01e003ee 03e00d0f d0f080ab 02e020f0  .............. .
 0850 01e042e0 00100020 80a12020 80a1502d  ..B.... ..  ..P-
 0860 00ee0d0f d4f044ab 0d0fd0f0 40ab01e0  ......D.....@...
 0870 10f20201 20a00101 10a2a200 03100320  .... .......... 
 0880 83a16320 83a1232e 01e003ee 42e020f6  ..c ..#.....B. .
 0890 0d0fd1f0 c1ab0d0f d0f0c0ab 04e040f0  ..............@.
 08a0 10a812e0 20f50d0f d0f080ab 04e040f0  .... .........@.
 08b0 40a801e0 10f48201 20a08401 40a25d00  @....... ...@.].
 08c0 d0b4129c 0d0fd0f0 80ab01e0 10f040a8  ..............@.
 08d0 02e020f4 04e08101 14a0c47b c26b8401  .. ........{.k..
 08e0 42a2c27b 03ac5000 c07b0d0f d0f0c0ab  B..{..P..{......
 08f0 01e010f0 c26b02b2 879f470f 7df00601  .....k....G.}...
 0900 6de17df5 070f0d4c 7df50e4c 0ef8fe5f  m.}....L}..L..._
 0910 070f7df0 fd5f470f 7df0070f 7df5470f  ..}.._G.}...}.G.
 0920 7df0c60e 6de17df5 0d0fd0f0 80ab04e0  }...m.}.........
 0930 41f50d0f d0f070ab 01e012f7 0d0fd0f0  A.....p.........
 0940 00ab02e0 23f50d0f d1f0c1ab 000014e0  ....#...........
 0950 40f50d0f d1f0c1ab 000012e0 20f549ac  @........... .I.
 0960 0d0fd0f0 c0ab04e0 40f001e0 0d0fd0f0  ........@.......
 0970 70ab02e0 20f410e1 04e00d0f d0f000ab  p... ...........
 0980 01e010f0 a2000310 032083a1 632083a1  ......... ..c ..
 0990 532f01e0 03ee03e0 0d0fd0f0 80ab02e0  S/..............
 09a0 20f001e0 42e00010 002080a1 202080a1   ...B.... ..  ..
 09b0 502d00ee 0d0fd4f0 04ab0d0f d0f000ab  P-..............
 09c0 01e010f0 a2000310 032083a1 632083a1  ......... ..c ..
 09d0 232e01e0 03ee42e0 20f50d0f d1f0c1ab  #.....B. .......
 09e0 0d0fd0f0 c0ab04e0 40f010a8 12e020f5  ........@..... .
 09f0 0d0fd0f0 80ab04e0 40f040a8 01e010f4  ........@.@.....
 0a00 820120a0 840140a2 ad00d0b4 129c0d0f  .. ...@.........
 0a10 d0f080ab 01e010f0 40a802e0 20f404e0  ........@... ...
 0a20 810114a0 b47bb26b 840142a2 b27b03ac  .....{.k..B..{..
 0a30 a000b07b 0d0fd0f0 c0ab01e0 10f0b26b  ...{...........k
 0a40 02b28f9f 470f7df0 46016de1 7df5070f  ....G.}.F.m.}...
 0a50 0d4c7df5 0e4c0ef8 fe5f070f 7df0fd5f  .L}..L..._..}.._
 0a60 470f7df0 070f7df5 470f7df0 8dab7df5  G.}...}.G.}...}.
 0a70 0d0fd0f0 c0ab04e0 41f50d0f d0f0b0ab  ........A.......
 0a80 01e012f7 0d0fd0f0 a0ab02e0 23f70d0f  ............#...
 0a90 d0f0a0ab 04e040f4 f10010e5 03e00d0f  ......@.........
 0aa0 d0f0c0ab 02e021f0 0d0fd0f0 b0ab04e0  ......!.........
 0ab0 40f402e0 00100020 80a12020 80a1502d  @...... ..  ..P-
 0ac0 00ee0d0f d0f0b0ab 01e010f4 10a802e0  ................
 0ad0 0d0fd0f0 a0ab04e0 40f48101 10a08401  ........@.......
 0ae0 40a240a3 03e00d0f d0f0c0ab 01e010f0  @.@.............
 0af0 01e00010 002080a1 202080a1 502d00ee  ..... ..  ..P-..
 0b00 470f7df0 8da87df5 070f0d4c 7df50e4c  G.}...}....L}..L
 0b10 0ef8fe5f 070f7df0 fd5f470f 7df0070f  ..._..}.._G.}...
 0b20 7df5470f 7df04dab 7df50d0f d0f080ab  }.G.}.M.}.......
 0b30 04e041f5 0d0fd0f0 70ab01e0 12f70d0f  ..A.....p.......
 0b40 d0f040ab 02e023f6 0d0fd1f0 c1ab0000  ..@...#.........
 0b50 13e030f5 0d0fd1f0 c1ab0000 14e040f5  ..0...........@.
 0b60 3cac0d0f d0f0c0ab 01e010f0 01e00d0f  <...............
 0b70 d0f070ab 02e020f4 10e102e0 0d0fd0f0  ..p... .........
 0b80 40ab03e0 30f201e0 040141a0 000101a2  @...0.....A.....
 0b90 0d0fd0f0 c0ab03e0 30f020a1 14e004e8  ........0. .....
 0ba0 40e0f100 10e503e0 0d0fd0f0 80ab04e0  @...............
 0bb0 40f001e0 00100020 80a12020 80a1502d  @...... ..  ..P-
 0bc0 00ee0d0f d1f0c1ab 0d0fd0f0 c0ab02e0  ................
 0bd0 20f010a8 13e030f5 0d0fd0f0 c0ab04e0   .....0.........
 0be0 40f03038 bf8f470f 7df0cda8 7df5070f  @.08..G.}...}...
 0bf0 0d4c7df5 0e4c0ef8 fe5f070f 7df0fd5f  .L}..L..._..}.._
 0c00 470f7df0 070f7df5 470f7df0 0dab7df5  G.}...}.G.}...}.
 0c10 0d0fd0f0 80ab04e0 41f50d0f d0f070ab  ........A.....p.
 0c20 01e012f7 0d0fd0f0 00ab02e0 23f50d0f  ............#...
 0c30 d1f0c1ab 000013e0 30f50d0f d1f0c1ab  ........0.......
 0c40 000014e0 40f536ac 0d0fd0f0 c0ab01e0  ....@.6.........
 0c50 10f001e0 0d0fd0f0 70ab02e0 20f410e1  ........p... ...
 0c60 02e00d0f d0f0c0ab 03e030f0 01e021a1  ..........0...!.
 0c70 0d0fd0f0 00ab04e0 40f010a2 f10010e5  ........@.......
 0c80 03e00d0f d0f080ab 04e040f0 01e00010  ..........@.....
 0c90 002080a1 202080a1 502d00ee 0d0fd1f0  . ..  ..P-......
 0ca0 c1ab0d0f d0f0c0ab 02e020f0 10a813e0  .......... .....
 0cb0 30f50d0f d0f0c0ab 04e040f0 7038c58f  0.........@.p8..
 0cc0 470f7df0 06016de1 7df5070f 0d4c7df5  G.}...m.}....L}.
 0cd0 0e4c0ef8 070f7df0 fd5f470f 7df0070f  .L....}.._G.}...
 0ce0 7df5470f 7df04dab 7df50d0f d0f080ab  }.G.}.M.}.......
 0cf0 03e031f5 0d0fd0f0 70ab01e0 12f70d0f  ..1.....p.......
 0d00 d0f080ab 02e020f0 03e030f0 01e061a8  ...... ...0...a.
 0d10 0d0fd0f0 c0ab02e0 21f50d0f d0f070ab  ........!.....p.
 0d20 03e030f4 f10310e5 01e0000c 10e601e0  ..0.............
 0d30 0d0fd0f0 c0ab02e0 20f003e0 31f70d0f  ........ ...1...
 0d40 d0f080ab 01e010f0 02e020f0 01e071a8  .......... ...q.
 0d50 0d0fd0f0 c0ab03e0 31f50d0f d0f0c0ab  ........1.......
 0d60 01e010f0 02e020f4 830130a0 810110a2  ...... ...0.....
 0d70 470f7df0 cda87df5 070f0d4c 7df50ef8  G.}...}....L}...
 0d80 070f7df0 fd5f470f 7df0070f 7df5470f  ..}.._G.}...}.G.
 0d90 7df08dab 7df50d0f d0f0c0ab 04e041f5  }...}.........A.
 0da0 0d0fd0f0 b0ab01e0 12f70d0f d0f0a0ab  ................
 0db0 04e043f7 470f7df0 8da87df5 070f0d4c  ..C.G.}...}....L
 0dc0 7df50ef8 02b8119c 01b810d0 0e9c2de0  }.............-.
 0dd0 f2b71281 fe8f0000 d2b3079c 10a112b4  ................
 0de0 21c31088 12a3f9af 0ef802b8 0e9c01b8  !...............
 0df0 10d00b9c 2de0f2b7 1281fe8f d2b3059c  ....-...........
 0e00 12b421c3 12a3fbaf 10e00ef8 15e003b8  ..!.............
 0e10 0b9c0400 51e041e1 20e040e1 00f410f7  ....Q.A. .@.....
 0e20 14a834b0 f88f50e0 0ef810e0 03b8079c  ..4...P.........
 0e30 14e013e1 42f714a8 34b0fd8f 0ef810f3  ....B...4.......
 0e40 00b8089c 12e012a8 20f300b8 fd8f20e0  ........ ..... .
 0e50 10e30ef8 00feffaf 80080202 02f790ab  ................
 0e60 00f420b6 069c00fe 100800f4 20b6fc8f  .. ......... ...
 0e70 100802f4 00f450b6 0d8c2200 100800f4  ......P...".....
 0e80 30b60c8c 600800f2 80088102 01f73200  0...`.........2.
 0e90 0dac62a3 140042e5 f2af6008 03f220a8  ..b...B...`... .
 0ea0 840204f7 02b8028c 13f720e0 0ef80000  .......... .....
 0eb0 0ef8f95f fe5f070f 7df0fd5f 470f7df0  ..._._..}.._G.}.
 0ec0 070f7df5 0d0fd0f0 c0a807f0 03e083a8  ..}.............
 0ed0 31f0f400 41e516e0 04e044a8 42f002b8  1...A.....D.B...
 0ee0 609c3508 090059f7 07f530f0 090f90e5  `.5...Y...0.....
 0ef0 10e630f5 42f533f0 010331e5 01b8478c  ..0.B.3...1...G.
 0f00 63b63c9c f30063e5 33b6319c 23b6289c  c.<...c.3.1.#.(.
 0f10 13b61f9c 03b6189c 310810f4 40a410f7  ........1...@...
 0f20 71e00010 002080a1 602080a1 202e00ee  q.... ..` .. ...
 0f30 02e042a1 440140a0 850150a2 510810f7  ..B.D.@...P.Q...
 0f40 400802f7 2eac3108 10f400a4 10f7e5af  @.....1.........
 0f50 310810f4 10a410f7 03b6df8f f5af3108  1.............1.
 0f60 10f420a4 10f713b6 d68ff3af 310810f4  .. .........1...
 0f70 30a410f7 23b6cd8f f3af3108 10f450a4  0...#.....1...P.
 0f80 10f7f300 63e533b6 c28ff1af 50f40808  ....c.3.....P...
 0f90 80e650f7 01b9b58f 50f460a4 50f7b1af  ..P.....P.`.P...
 0fa0 070f0d4c 7df50e4c 094c0ef8 00000ef8  ...L}..L.L......
 0fb0 f95ffa5f fb5ffc5f fe5f070f 7df0fd5f  ._._._._._..}.._
 0fc0 470f7df0 070f7df5 470f7df0 cdab7df5  G.}...}.G.}...}.
 0fd0 2ce03be0 0338178c 09000d0f daf0faab  ,.;..8..........
 0fe0 a1e00210 022082a1 722082a1 c22202ee  ..... ..r ..."..
 0ff0 00b80a8c 90e0c0e1 a1f401f7 19a89bb0  ................
 1000 f08f02ac 090090e0 470f7df0 4da87df5  ........G.}.M.}.
 1010 070f0d4c 7df50e4c 0c4c0b4c 0a4c094c  ...L}..L.L.L.L.L
 1020 0ef8f95f fa5ffb5f fc5ffe5f 070f7df0  ..._._._._._..}.
 1030 fd5f470f 7df0070f 7df5470f 7df0cdab  ._G.}...}.G.}...
 1040 7df52be0 3ce00338 1f8c0a00 0d0fd9f0  }.+.<..8........
 1050 f9ab91e0 02100220 82a17220 82a1c222  ....... ..r ..."
 1060 02ee00b8 0d8c91f4 90f3d0b8 079ca0b8  ................
 1070 079cb0e0 a0e101f7 1aa8cab1 eb9fabe1  ................
 1080 0200b2f7 02ac0a00 a0e0470f 7df04da8  ..........G.}.M.
 1090 7df5070f 0d4c7df5 0e4c0c4c 0b4c0a4c  }....L}..L.L.L.L
 10a0 094c0ef8 0338278c 040040e0 20e101f4  .L...8'...@. ...
 10b0 100800f4 10b6069c 00fe1008 00f410b6  ................
 10c0 fc8f10e0 850150a0 50e86108 10f68008  ......P.P.a.....
 10d0 810101f7 90ab00f4 10b6069c 00fe1008  ................
 10e0 00f410b6 fc8f8008 050005f7 14a843b0  ..............C.
 10f0 dd8f02ac 030030e0 0ef8               ......0...      
Contents of section .rodata:
 0000 0a0d4861 6c6c6f20 57656c74 210a0d00  ..Hallo Welt!...
 0010 00000000 00000000 00000000 00000000  ................
 0020 20507573 68627574 746f6e20 31200000   Pushbutton 1 ..
 0030 00000000 00000000 00000000 00000000  ................
 0040 20507573 68627574 746f6e20 32200000   Pushbutton 2 ..
 0050 00000000 00000000 00000000 00000000  ................
 0060 20507573 68627574 746f6e20 33200000   Pushbutton 3 ..
 0070 00000000 00000000 00000000 00000000  ................
 0080 0d000000 00000000 00000000 00000000  ................
 0090 00000000 00000000 00000000 00000000  ................

Disassembly of section .text:

00000000 <.text>:
       0:	05 10       	ldhi r5,0
       2:	05 20       	ldliu r5,0x0
       4:	85 a1       	sli r5,0x8
       6:	05 20       	ldliu r5,0x0
       8:	85 a1       	sli r5,0x8
       a:	05 2a       	ldliu r5,0xa0
       c:	06 10       	ldhi r6,0
       e:	06 20       	ldliu r6,0x0
      10:	86 a1       	sli r6,0x8
      12:	06 20       	ldliu r6,0x0
      14:	86 a1       	sli r6,0x8
      16:	c6 2a       	ldliu r6,0xac
      18:	65 b0       	cmp_eq r5,r6
      1a:	06 9c       	jmpi_ct 6
      1c:	07 00       	ldli r7,0
      1e:	57 f5       	stw r7,r5
      20:	45 a8       	addi r5,4
      22:	65 b1       	cmp_lt r5,r6
      24:	fd 9f       	jmpi_ct -3
      26:	00 10       	ldhi r0,0
      28:	00 20       	ldliu r0,0x0
      2a:	01 10       	ldhi r1,0
      2c:	01 20       	ldliu r1,0x0
      2e:	02 10       	ldhi r2,0
      30:	02 20       	ldliu r2,0x0
      32:	03 10       	ldhi r3,0
      34:	03 20       	ldliu r3,0x0
      36:	04 10       	ldhi r4,0
      38:	04 20       	ldliu r4,0x0
      3a:	05 10       	ldhi r5,0
      3c:	05 20       	ldliu r5,0x0
      3e:	06 10       	ldhi r6,0
      40:	06 20       	ldliu r6,0x0
      42:	07 10       	ldhi r7,0
      44:	07 20       	ldliu r7,0x0
      46:	08 10       	ldhi r8,0
      48:	08 20       	ldliu r8,0x0
      4a:	09 10       	ldhi r9,0
      4c:	09 20       	ldliu r9,0x0
      4e:	0a 10       	ldhi r10,0
      50:	0a 20       	ldliu r10,0x0
      52:	0b 10       	ldhi r11,0
      54:	0b 20       	ldliu r11,0x0
      56:	0c 10       	ldhi r12,0
      58:	0c 20       	ldliu r12,0x0
      5a:	0d 10       	ldhi r13,0
      5c:	0d 20       	ldliu r13,0x0
      5e:	0e 10       	ldhi r14,0
      60:	0e 20       	ldliu r14,0x0
      62:	0f 10       	ldhi r15,0
      64:	0f 20       	ldliu r15,0x0
      66:	87 0e       	ldli r7,-24
      68:	0d 10       	ldhi r13,0
      6a:	0d 20       	ldliu r13,0x0
      6c:	7d f5       	stw r13,r7
      6e:	c7 0e       	ldli r7,-20
      70:	0d 10       	ldhi r13,0
      72:	0d 20       	ldliu r13,0x0
      74:	7d f5       	stw r13,r7
      76:	07 0f       	ldli r7,-16
      78:	0d 10       	ldhi r13,0
      7a:	0d 20       	ldliu r13,0x0
      7c:	7d f5       	stw r13,r7
      7e:	47 0f       	ldli r7,-12
      80:	0d 10       	ldhi r13,0
      82:	0d 20       	ldliu r13,0x0
      84:	7d f5       	stw r13,r7
      86:	0d 10       	ldhi r13,0
      88:	2d 20       	ldliu r13,0x2
      8a:	8d a1       	sli r13,0x8
      8c:	0d 20       	ldliu r13,0x0
      8e:	8d a1       	sli r13,0x8
      90:	0d 20       	ldliu r13,0x0
      92:	07 0f       	ldli r7,-16
      94:	7d f5       	stw r13,r7
      96:	47 0f       	ldli r7,-12
      98:	7d f5       	stw r13,r7
      9a:	0d 10       	ldhi r13,0
      9c:	0d 20       	ldliu r13,0x0
      9e:	8d a1       	sli r13,0x8
      a0:	0d 20       	ldliu r13,0x0
      a2:	8d a1       	sli r13,0x8
      a4:	cd 25       	ldliu r13,0x5c
      a6:	0d ee       	jsr r13
      a8:	01 e0       	mov r1,r0
      aa:	0d 10       	ldhi r13,0
      ac:	0d 20       	ldliu r13,0x0
      ae:	8d a1       	sli r13,0x8
      b0:	7d 20       	ldliu r13,0x7
      b2:	8d a1       	sli r13,0x8
      b4:	ad 22       	ldliu r13,0x2a
      b6:	0d ee       	jsr r13
      b8:	f9 5f       	stfpz_dec r9,-1
      ba:	fa 5f       	stfpz_dec r10,-1
      bc:	fb 5f       	stfpz_dec r11,-1
      be:	fc 5f       	stfpz_dec r12,-1
      c0:	fe 5f       	stfpz_dec r14,-1
      c2:	07 0f       	ldli r7,-16
      c4:	7d f0       	ldw r13,r7
      c6:	fd 5f       	stfpz_dec r13,-1
      c8:	47 0f       	ldli r7,-12
      ca:	7d f0       	ldw r13,r7
      cc:	07 0f       	ldli r7,-16
      ce:	7d f5       	stw r13,r7
      d0:	47 0f       	ldli r7,-12
      d2:	7d f0       	ldw r13,r7
      d4:	06 05       	ldli r6,80
      d6:	f6 1f       	ldhi r6,-1
      d8:	6d e1       	add r13,r6
      da:	7d f5       	stw r13,r7
      dc:	0d 0f       	ldli r13,-16
      de:	db f0       	ldw r11,r13
      e0:	40 0d       	ldli r0,-44
      e2:	0b e1       	add r11,r0
      e4:	09 10       	ldhi r9,0
      e6:	09 20       	ldliu r9,0x0
      e8:	89 a1       	sli r9,0x8
      ea:	79 20       	ldliu r9,0x7
      ec:	89 a1       	sli r9,0x8
      ee:	69 20       	ldliu r9,0x6
      f0:	b1 e0       	mov r1,r11
      f2:	02 10       	ldhi r2,0
      f4:	02 20       	ldliu r2,0x0
      f6:	82 a1       	sli r2,0x8
      f8:	02 20       	ldliu r2,0x0
      fa:	82 a1       	sli r2,0x8
      fc:	02 20       	ldliu r2,0x0
      fe:	03 01       	ldli r3,16
     100:	09 ee       	jsr r9
     102:	0d 0f       	ldli r13,-16
     104:	d0 f0       	ldw r0,r13
     106:	40 aa       	addi r0,-28
     108:	02 00       	ldli r2,0
     10a:	02 f5       	stw r2,r0
     10c:	40 a8       	addi r0,4
     10e:	02 f5       	stw r2,r0
     110:	40 a8       	addi r0,4
     112:	02 f5       	stw r2,r0
     114:	40 a8       	addi r0,4
     116:	02 f5       	stw r2,r0
     118:	0d 0f       	ldli r13,-16
     11a:	d1 f0       	ldw r1,r13
     11c:	40 0b       	ldli r0,-76
     11e:	01 e1       	add r1,r0
     120:	02 10       	ldhi r2,0
     122:	02 20       	ldliu r2,0x0
     124:	82 a1       	sli r2,0x8
     126:	02 20       	ldliu r2,0x0
     128:	82 a1       	sli r2,0x8
     12a:	02 22       	ldliu r2,0x20
     12c:	f3 00       	ldli r3,15
     12e:	09 ee       	jsr r9
     130:	0a 10       	ldhi r10,0
     132:	0a 20       	ldliu r10,0x0
     134:	8a a1       	sli r10,0x8
     136:	7a 20       	ldliu r10,0x7
     138:	8a a1       	sli r10,0x8
     13a:	5a 21       	ldliu r10,0x15
     13c:	41 0b       	ldli r1,-76
     13e:	0d 0f       	ldli r13,-16
     140:	dd f0       	ldw r13,r13
     142:	d1 e1       	add r1,r13
     144:	f1 a8       	addi r1,15
     146:	02 00       	ldli r2,0
     148:	13 01       	ldli r3,17
     14a:	0a ee       	jsr r10
     14c:	0d 0f       	ldli r13,-16
     14e:	d1 f0       	ldw r1,r13
     150:	42 09       	ldli r2,-108
     152:	21 e1       	add r1,r2
     154:	02 10       	ldhi r2,0
     156:	02 20       	ldliu r2,0x0
     158:	82 a1       	sli r2,0x8
     15a:	02 20       	ldliu r2,0x0
     15c:	82 a1       	sli r2,0x8
     15e:	02 24       	ldliu r2,0x40
     160:	f3 00       	ldli r3,15
     162:	09 ee       	jsr r9
     164:	41 09       	ldli r1,-108
     166:	0d 0f       	ldli r13,-16
     168:	dd f0       	ldw r13,r13
     16a:	d1 e1       	add r1,r13
     16c:	f1 a8       	addi r1,15
     16e:	02 00       	ldli r2,0
     170:	13 01       	ldli r3,17
     172:	0a ee       	jsr r10
     174:	0d 0f       	ldli r13,-16
     176:	d1 f0       	ldw r1,r13
     178:	43 07       	ldli r3,116
     17a:	f3 1f       	ldhi r3,-1
     17c:	31 e1       	add r1,r3
     17e:	02 10       	ldhi r2,0
     180:	02 20       	ldliu r2,0x0
     182:	82 a1       	sli r2,0x8
     184:	02 20       	ldliu r2,0x0
     186:	82 a1       	sli r2,0x8
     188:	02 26       	ldliu r2,0x60
     18a:	f3 00       	ldli r3,15
     18c:	09 ee       	jsr r9
     18e:	41 07       	ldli r1,116
     190:	f1 1f       	ldhi r1,-1
     192:	0d 0f       	ldli r13,-16
     194:	dd f0       	ldw r13,r13
     196:	d1 e1       	add r1,r13
     198:	f1 a8       	addi r1,15
     19a:	02 00       	ldli r2,0
     19c:	13 01       	ldli r3,17
     19e:	0a ee       	jsr r10
     1a0:	0d 0f       	ldli r13,-16
     1a2:	d0 f0       	ldw r0,r13
     1a4:	44 05       	ldli r4,84
     1a6:	f4 1f       	ldhi r4,-1
     1a8:	40 e1       	add r0,r4
     1aa:	c4 ab       	addi r4,-4
     1ac:	0d 0f       	ldli r13,-16
     1ae:	dd f0       	ldw r13,r13
     1b0:	d4 e1       	add r4,r13
     1b2:	40 f5       	stw r0,r4
     1b4:	00 10       	ldhi r0,0
     1b6:	00 20       	ldliu r0,0x0
     1b8:	80 a1       	sli r0,0x8
     1ba:	00 20       	ldliu r0,0x0
     1bc:	80 a1       	sli r0,0x8
     1be:	00 28       	ldliu r0,0x80
     1c0:	02 f4       	ldbu r2,r0
     1c2:	41 f0       	ldw r1,r4
     1c4:	12 f7       	stb r2,r1
     1c6:	11 a8       	addi r1,1
     1c8:	10 a8       	addi r0,1
     1ca:	00 f4       	ldbu r0,r0
     1cc:	10 f7       	stb r0,r1
     1ce:	f1 ab       	addi r1,-1
     1d0:	41 f5       	stw r1,r4
     1d2:	21 a8       	addi r1,2
     1d4:	02 00       	ldli r2,0
     1d6:	e3 01       	ldli r3,30
     1d8:	0a ee       	jsr r10
     1da:	23 10       	ldhi r3,2
     1dc:	a3 2f       	ldliu r3,0xfa
     1de:	83 a1       	sli r3,0x8
     1e0:	03 2f       	ldliu r3,0xf0
     1e2:	83 a1       	sli r3,0x8
     1e4:	03 28       	ldliu r3,0x80
     1e6:	d3 7b       	stfpy r3,-3
     1e8:	04 10       	ldhi r4,0
     1ea:	14 20       	ldliu r4,0x1
     1ec:	84 a1       	sli r4,0x8
     1ee:	24 2c       	ldliu r4,0xc2
     1f0:	84 a1       	sli r4,0x8
     1f2:	04 20       	ldliu r4,0x0
     1f4:	e4 7b       	stfpy r4,-2
     1f6:	0d 0f       	ldli r13,-16
     1f8:	d0 f0       	ldw r0,r13
     1fa:	c0 ab       	addi r0,-4
     1fc:	01 f0       	ldw r1,r0
     1fe:	03 0c       	ldli r3,-64
     200:	31 e5       	and r1,r3
     202:	74 00       	ldli r4,7
     204:	41 e6       	or r1,r4
     206:	51 a4       	bset r1,0x5
     208:	61 a6       	bclr r1,0x6
     20a:	01 f5       	stw r1,r0
     20c:	4d 0f       	ldli r13,-12
     20e:	d0 f0       	ldw r0,r13
     210:	40 ab       	addi r0,-12
     212:	4d 0f       	ldli r13,-12
     214:	d0 f5       	stw r0,r13
     216:	22 10       	ldhi r2,2
     218:	a2 2f       	ldliu r2,0xfa
     21a:	82 a1       	sli r2,0x8
     21c:	02 2f       	ldliu r2,0xf0
     21e:	82 a1       	sli r2,0x8
     220:	02 28       	ldliu r2,0x80
     222:	02 7c       	stfpz r2,0
     224:	40 a8       	addi r0,4
     226:	04 10       	ldhi r4,0
     228:	14 20       	ldliu r4,0x1
     22a:	84 a1       	sli r4,0x8
     22c:	24 2c       	ldliu r4,0xc2
     22e:	84 a1       	sli r4,0x8
     230:	04 20       	ldliu r4,0x0
     232:	04 f5       	stw r4,r0
     234:	40 a8       	addi r0,4
     236:	01 f5       	stw r1,r0
     238:	00 10       	ldhi r0,0
     23a:	00 20       	ldliu r0,0x0
     23c:	80 a1       	sli r0,0x8
     23e:	70 20       	ldliu r0,0x7
     240:	80 a1       	sli r0,0x8
     242:	90 25       	ldliu r0,0x59
     244:	00 ee       	jsr r0
     246:	4d 0f       	ldli r13,-12
     248:	d0 f0       	ldw r0,r13
     24a:	c0 a8       	addi r0,12
     24c:	4d 0f       	ldli r13,-12
     24e:	d0 f5       	stw r0,r13
     250:	01 10       	ldhi r1,0
     252:	01 20       	ldliu r1,0x0
     254:	81 a1       	sli r1,0x8
     256:	01 20       	ldliu r1,0x0
     258:	81 a1       	sli r1,0x8
     25a:	01 2a       	ldliu r1,0xa0
     25c:	02 0e       	ldli r2,-32
     25e:	e2 1f       	ldhi r2,-2
     260:	83 00       	ldli r3,8
     262:	00 10       	ldhi r0,0
     264:	00 20       	ldliu r0,0x0
     266:	80 a1       	sli r0,0x8
     268:	20 20       	ldliu r0,0x2
     26a:	80 a1       	sli r0,0x8
     26c:	a0 24       	ldliu r0,0x4a
     26e:	00 ee       	jsr r0
     270:	01 10       	ldhi r1,0
     272:	01 20       	ldliu r1,0x0
     274:	81 a1       	sli r1,0x8
     276:	01 20       	ldliu r1,0x0
     278:	81 a1       	sli r1,0x8
     27a:	01 2a       	ldliu r1,0xa0
     27c:	02 00       	ldli r2,0
     27e:	23 04       	ldli r3,66
     280:	00 10       	ldhi r0,0
     282:	00 20       	ldliu r0,0x0
     284:	80 a1       	sli r0,0x8
     286:	50 20       	ldliu r0,0x5
     288:	80 a1       	sli r0,0x8
     28a:	c0 2f       	ldliu r0,0xfc
     28c:	00 ee       	jsr r0
     28e:	b1 e0       	mov r1,r11
     290:	02 10       	ldhi r2,0
     292:	02 20       	ldliu r2,0x0
     294:	82 a1       	sli r2,0x8
     296:	72 20       	ldliu r2,0x7
     298:	82 a1       	sli r2,0x8
     29a:	f2 21       	ldliu r2,0x1f
     29c:	02 ee       	jsr r2
     29e:	01 00       	ldli r1,0
     2a0:	b2 e0       	mov r2,r11
     2a2:	03 e0       	mov r3,r0
     2a4:	04 10       	ldhi r4,0
     2a6:	04 20       	ldliu r4,0x0
     2a8:	84 a1       	sli r4,0x8
     2aa:	84 20       	ldliu r4,0x8
     2ac:	84 a1       	sli r4,0x8
     2ae:	24 25       	ldliu r4,0x52
     2b0:	04 ee       	jsr r4
     2b2:	09 00       	ldli r9,0
     2b4:	0c 10       	ldhi r12,0
     2b6:	0c 20       	ldliu r12,0x0
     2b8:	8c a1       	sli r12,0x8
     2ba:	2c 20       	ldliu r12,0x2
     2bc:	8c a1       	sli r12,0x8
     2be:	4c 20       	ldliu r12,0x4
     2c0:	01 10       	ldhi r1,0
     2c2:	01 20       	ldliu r1,0x0
     2c4:	81 a1       	sli r1,0x8
     2c6:	11 20       	ldliu r1,0x1
     2c8:	81 a1       	sli r1,0x8
     2ca:	61 2f       	ldliu r1,0xf6
     2cc:	01 ee       	jsr r1
     2ce:	0b e0       	mov r11,r0
     2d0:	09 b0       	cmp_eq r9,r0
     2d2:	07 9c       	jmpi_ct 7
     2d4:	20 b6       	btest r0,0x2
     2d6:	70 9c       	jmpi_ct 112
     2d8:	1b b6       	btest r11,0x1
     2da:	55 9c       	jmpi_ct 85
     2dc:	0b b6       	btest r11,0x0
     2de:	3a 9c       	jmpi_ct 58
     2e0:	0a 00       	ldli r10,0
     2e2:	09 00       	ldli r9,0
     2e4:	91 e0       	mov r1,r9
     2e6:	0c ee       	jsr r12
     2e8:	81 01       	ldli r1,24
     2ea:	10 a0       	sl r0,r1
     2ec:	10 a2       	sr r0,r1
     2ee:	10 b8       	cmpi_eq r0,1
     2f0:	90 90       	sl_ct r0,r9
     2f2:	0a d6       	or_ct r10,r0
     2f4:	19 a8       	addi r9,1
     2f6:	29 b9       	cmpi_eq r9,18
     2f8:	f6 8f       	jmpi_cf -10
     2fa:	02 05       	ldli r2,80
     2fc:	f2 1f       	ldhi r2,-1
     2fe:	0d 0f       	ldli r13,-16
     300:	dd f0       	ldw r13,r13
     302:	d2 e1       	add r2,r13
     304:	21 f0       	ldw r1,r2
     306:	03 10       	ldhi r3,0
     308:	03 20       	ldliu r3,0x0
     30a:	83 a1       	sli r3,0x8
     30c:	73 20       	ldliu r3,0x7
     30e:	83 a1       	sli r3,0x8
     310:	f3 21       	ldliu r3,0x1f
     312:	03 ee       	jsr r3
     314:	01 00       	ldli r1,0
     316:	04 05       	ldli r4,80
     318:	f4 1f       	ldhi r4,-1
     31a:	0d 0f       	ldli r13,-16
     31c:	dd f0       	ldw r13,r13
     31e:	d4 e1       	add r4,r13
     320:	42 f0       	ldw r2,r4
     322:	03 e0       	mov r3,r0
     324:	04 10       	ldhi r4,0
     326:	04 20       	ldliu r4,0x0
     328:	84 a1       	sli r4,0x8
     32a:	84 20       	ldliu r4,0x8
     32c:	84 a1       	sli r4,0x8
     32e:	24 25       	ldliu r4,0x52
     330:	04 ee       	jsr r4
     332:	21 10       	ldhi r1,2
     334:	41 21       	ldliu r1,0x14
     336:	81 a1       	sli r1,0x8
     338:	01 20       	ldliu r1,0x0
     33a:	81 a1       	sli r1,0x8
     33c:	01 20       	ldliu r1,0x0
     33e:	a1 e6       	or r1,r10
     340:	00 10       	ldhi r0,0
     342:	00 20       	ldliu r0,0x0
     344:	80 a1       	sli r0,0x8
     346:	20 20       	ldliu r0,0x2
     348:	80 a1       	sli r0,0x8
     34a:	80 21       	ldliu r0,0x18
     34c:	00 ee       	jsr r0
     34e:	b9 e0       	mov r9,r11
     350:	b8 af       	jmpi -72
     352:	0d 0f       	ldli r13,-16
     354:	d1 f0       	ldw r1,r13
     356:	40 0b       	ldli r0,-76
     358:	01 e1       	add r1,r0
     35a:	02 10       	ldhi r2,0
     35c:	02 20       	ldliu r2,0x0
     35e:	82 a1       	sli r2,0x8
     360:	72 20       	ldliu r2,0x7
     362:	82 a1       	sli r2,0x8
     364:	f2 21       	ldliu r2,0x1f
     366:	02 ee       	jsr r2
     368:	01 00       	ldli r1,0
     36a:	0d 0f       	ldli r13,-16
     36c:	d2 f0       	ldw r2,r13
     36e:	43 0b       	ldli r3,-76
     370:	32 e1       	add r2,r3
     372:	03 e0       	mov r3,r0
     374:	04 10       	ldhi r4,0
     376:	04 20       	ldliu r4,0x0
     378:	84 a1       	sli r4,0x8
     37a:	84 20       	ldliu r4,0x8
     37c:	84 a1       	sli r4,0x8
     37e:	24 25       	ldliu r4,0x52
     380:	04 ee       	jsr r4
     382:	af af       	jmpi -81
     384:	0d 0f       	ldli r13,-16
     386:	d1 f0       	ldw r1,r13
     388:	40 09       	ldli r0,-108
     38a:	01 e1       	add r1,r0
     38c:	02 10       	ldhi r2,0
     38e:	02 20       	ldliu r2,0x0
     390:	82 a1       	sli r2,0x8
     392:	72 20       	ldliu r2,0x7
     394:	82 a1       	sli r2,0x8
     396:	f2 21       	ldliu r2,0x1f
     398:	02 ee       	jsr r2
     39a:	01 00       	ldli r1,0
     39c:	0d 0f       	ldli r13,-16
     39e:	d2 f0       	ldw r2,r13
     3a0:	43 09       	ldli r3,-108
     3a2:	32 e1       	add r2,r3
     3a4:	03 e0       	mov r3,r0
     3a6:	04 10       	ldhi r4,0
     3a8:	04 20       	ldliu r4,0x0
     3aa:	84 a1       	sli r4,0x8
     3ac:	84 20       	ldliu r4,0x8
     3ae:	84 a1       	sli r4,0x8
     3b0:	24 25       	ldliu r4,0x52
     3b2:	04 ee       	jsr r4
     3b4:	94 af       	jmpi -108
     3b6:	0d 0f       	ldli r13,-16
     3b8:	d1 f0       	ldw r1,r13
     3ba:	42 07       	ldli r2,116
     3bc:	f2 1f       	ldhi r2,-1
     3be:	21 e1       	add r1,r2
     3c0:	03 10       	ldhi r3,0
     3c2:	03 20       	ldliu r3,0x0
     3c4:	83 a1       	sli r3,0x8
     3c6:	73 20       	ldliu r3,0x7
     3c8:	83 a1       	sli r3,0x8
     3ca:	f3 21       	ldliu r3,0x1f
     3cc:	03 ee       	jsr r3
     3ce:	01 00       	ldli r1,0
     3d0:	0d 0f       	ldli r13,-16
     3d2:	d2 f0       	ldw r2,r13
     3d4:	44 07       	ldli r4,116
     3d6:	f4 1f       	ldhi r4,-1
     3d8:	42 e1       	add r2,r4
     3da:	03 e0       	mov r3,r0
     3dc:	04 10       	ldhi r4,0
     3de:	04 20       	ldliu r4,0x0
     3e0:	84 a1       	sli r4,0x8
     3e2:	84 20       	ldliu r4,0x8
     3e4:	84 a1       	sli r4,0x8
     3e6:	24 25       	ldliu r4,0x52
     3e8:	04 ee       	jsr r4
     3ea:	77 af       	jmpi -137
     3ec:	42 08       	ldli r2,-124
     3ee:	e2 1f       	ldhi r2,-2
     3f0:	21 f0       	ldw r1,r2
     3f2:	01 ec       	not r1
     3f4:	13 00       	ldli r3,1
     3f6:	31 e5       	and r1,r3
     3f8:	20 f0       	ldw r0,r2
     3fa:	10 b6       	btest r0,0x1
     3fc:	11 84       	bset_cf r1,0x1
     3fe:	20 f0       	ldw r0,r2
     400:	20 b6       	btest r0,0x2
     402:	21 84       	bset_cf r1,0x2
     404:	10 e0       	mov r0,r1
     406:	0e f8       	rts
     408:	40 08       	ldli r0,-124
     40a:	e0 1f       	ldhi r0,-2
     40c:	02 f0       	ldw r2,r0
     40e:	03 00       	ldli r3,0
     410:	32 e9       	srai r2,0x3
     412:	00 10       	ldhi r0,0
     414:	30 20       	ldliu r0,0x3
     416:	80 a1       	sli r0,0x8
     418:	f0 2f       	ldliu r0,0xff
     41a:	80 a1       	sli r0,0x8
     41c:	f0 2f       	ldliu r0,0xff
     41e:	02 e5       	and r2,r0
     420:	10 00       	ldli r0,1
     422:	10 a0       	sl r0,r1
     424:	02 e5       	and r2,r0
     426:	02 b8       	cmpi_eq r2,0
     428:	02 9c       	jmpi_ct 2
     42a:	13 00       	ldli r3,1
     42c:	30 e0       	mov r0,r3
     42e:	0e f8       	rts
     430:	12 e0       	mov r2,r1
     432:	50 01       	ldli r0,21
     434:	02 a0       	sl r2,r0
     436:	40 08       	ldli r0,-124
     438:	e0 1f       	ldhi r0,-2
     43a:	02 f5       	stw r2,r0
     43c:	51 a1       	sli r1,0x5
     43e:	00 01       	ldli r0,16
     440:	01 a2       	sr r1,r0
     442:	80 08       	ldli r0,-120
     444:	e0 1f       	ldhi r0,-2
     446:	01 f5       	stw r1,r0
     448:	0e f8       	rts
     44a:	12 f5       	stw r2,r1
     44c:	0e f8       	rts
     44e:	0e f8       	rts
     450:	11 f0       	ldw r1,r1
     452:	21 a8       	addi r1,2
     454:	10 f4       	ldbu r0,r1
     456:	00 a4       	bset r0,0x0
     458:	10 f7       	stb r0,r1
     45a:	0e f8       	rts
     45c:	30 06       	ldli r0,99
     45e:	e0 1f       	ldhi r0,-2
     460:	01 f0       	ldw r1,r0
     462:	11 a6       	bclr r1,0x1
     464:	01 f5       	stw r1,r0
     466:	01 f0       	ldw r1,r0
     468:	01 a4       	bset r1,0x0
     46a:	01 f5       	stw r1,r0
     46c:	0e f8       	rts
     46e:	30 06       	ldli r0,99
     470:	e0 1f       	ldhi r0,-2
     472:	01 f0       	ldw r1,r0
     474:	01 a6       	bclr r1,0x0
     476:	01 f5       	stw r1,r0
     478:	01 f0       	ldw r1,r0
     47a:	11 a4       	bset r1,0x1
     47c:	01 f5       	stw r1,r0
     47e:	0e f8       	rts
     480:	40 06       	ldli r0,100
     482:	e0 1f       	ldhi r0,-2
     484:	01 f5       	stw r1,r0
     486:	80 01       	ldli r0,24
     488:	02 a0       	sl r2,r0
     48a:	02 a2       	sr r2,r0
     48c:	80 06       	ldli r0,104
     48e:	e0 1f       	ldhi r0,-2
     490:	02 f5       	stw r2,r0
     492:	0e f8       	rts
     494:	07 0f       	ldli r7,-16
     496:	7d f0       	ldw r13,r7
     498:	fd 5f       	stfpz_dec r13,-1
     49a:	47 0f       	ldli r7,-12
     49c:	7d f0       	ldw r13,r7
     49e:	07 0f       	ldli r7,-16
     4a0:	7d f5       	stw r13,r7
     4a2:	47 0f       	ldli r7,-12
     4a4:	7d f0       	ldw r13,r7
     4a6:	4d ab       	addi r13,-12
     4a8:	7d f5       	stw r13,r7
     4aa:	0d 0f       	ldli r13,-16
     4ac:	d0 f0       	ldw r0,r13
     4ae:	c0 ab       	addi r0,-4
     4b0:	04 e0       	mov r4,r0
     4b2:	41 f5       	stw r1,r4
     4b4:	0d 0f       	ldli r13,-16
     4b6:	d0 f0       	ldw r0,r13
     4b8:	80 ab       	addi r0,-8
     4ba:	01 e0       	mov r1,r0
     4bc:	12 f5       	stw r2,r1
     4be:	0d 0f       	ldli r13,-16
     4c0:	d0 f0       	ldw r0,r13
     4c2:	70 ab       	addi r0,-9
     4c4:	02 e0       	mov r2,r0
     4c6:	23 f7       	stb r3,r2
     4c8:	0d 0f       	ldli r13,-16
     4ca:	d0 f0       	ldw r0,r13
     4cc:	c0 ab       	addi r0,-4
     4ce:	04 e0       	mov r4,r0
     4d0:	41 f0       	ldw r1,r4
     4d2:	0d 0f       	ldli r13,-16
     4d4:	d0 f0       	ldw r0,r13
     4d6:	80 ab       	addi r0,-8
     4d8:	02 e0       	mov r2,r0
     4da:	20 f0       	ldw r0,r2
     4dc:	14 e0       	mov r4,r1
     4de:	40 f5       	stw r0,r4
     4e0:	0d 0f       	ldli r13,-16
     4e2:	d0 f0       	ldw r0,r13
     4e4:	c0 ab       	addi r0,-4
     4e6:	01 e0       	mov r1,r0
     4e8:	10 f0       	ldw r0,r1
     4ea:	01 e0       	mov r1,r0
     4ec:	41 a8       	addi r1,4
     4ee:	0d 0f       	ldli r13,-16
     4f0:	d0 f0       	ldw r0,r13
     4f2:	70 ab       	addi r0,-9
     4f4:	02 e0       	mov r2,r0
     4f6:	20 f4       	ldbu r0,r2
     4f8:	14 e0       	mov r4,r1
     4fa:	40 f7       	stb r0,r4
     4fc:	47 0f       	ldli r7,-12
     4fe:	7d f0       	ldw r13,r7
     500:	cd a8       	addi r13,12
     502:	7d f5       	stw r13,r7
     504:	07 0f       	ldli r7,-16
     506:	0d 4c       	ldfpz_inc r13,0
     508:	7d f5       	stw r13,r7
     50a:	0e f8       	rts
     50c:	07 0f       	ldli r7,-16
     50e:	7d f0       	ldw r13,r7
     510:	fd 5f       	stfpz_dec r13,-1
     512:	47 0f       	ldli r7,-12
     514:	7d f0       	ldw r13,r7
     516:	07 0f       	ldli r7,-16
     518:	7d f5       	stw r13,r7
     51a:	47 0f       	ldli r7,-12
     51c:	7d f0       	ldw r13,r7
     51e:	cd ab       	addi r13,-4
     520:	7d f5       	stw r13,r7
     522:	0d 0f       	ldli r13,-16
     524:	d0 f0       	ldw r0,r13
     526:	c0 ab       	addi r0,-4
     528:	02 e0       	mov r2,r0
     52a:	21 f5       	stw r1,r2
     52c:	47 0f       	ldli r7,-12
     52e:	7d f0       	ldw r13,r7
     530:	4d a8       	addi r13,4
     532:	7d f5       	stw r13,r7
     534:	07 0f       	ldli r7,-16
     536:	0d 4c       	ldfpz_inc r13,0
     538:	7d f5       	stw r13,r7
     53a:	0e f8       	rts
     53c:	07 0f       	ldli r7,-16
     53e:	7d f0       	ldw r13,r7
     540:	fd 5f       	stfpz_dec r13,-1
     542:	47 0f       	ldli r7,-12
     544:	7d f0       	ldw r13,r7
     546:	07 0f       	ldli r7,-16
     548:	7d f5       	stw r13,r7
     54a:	47 0f       	ldli r7,-12
     54c:	7d f0       	ldw r13,r7
     54e:	4d ab       	addi r13,-12
     550:	7d f5       	stw r13,r7
     552:	0d 0f       	ldli r13,-16
     554:	d0 f0       	ldw r0,r13
     556:	80 ab       	addi r0,-8
     558:	03 e0       	mov r3,r0
     55a:	31 f5       	stw r1,r3
     55c:	0d 0f       	ldli r13,-16
     55e:	d0 f0       	ldw r0,r13
     560:	60 ab       	addi r0,-10
     562:	01 e0       	mov r1,r0
     564:	12 f6       	sth r2,r1
     566:	0d 0f       	ldli r13,-16
     568:	d0 f0       	ldw r0,r13
     56a:	80 ab       	addi r0,-8
     56c:	02 e0       	mov r2,r0
     56e:	20 f0       	ldw r0,r2
     570:	03 e0       	mov r3,r0
     572:	30 f0       	ldw r0,r3
     574:	01 e0       	mov r1,r0
     576:	41 a8       	addi r1,4
     578:	0d 0f       	ldli r13,-16
     57a:	d0 f0       	ldw r0,r13
     57c:	c0 ab       	addi r0,-4
     57e:	02 e0       	mov r2,r0
     580:	21 f5       	stw r1,r2
     582:	0d 0f       	ldli r13,-16
     584:	d0 f0       	ldw r0,r13
     586:	c0 ab       	addi r0,-4
     588:	03 e0       	mov r3,r0
     58a:	31 f0       	ldw r1,r3
     58c:	0d 0f       	ldli r13,-16
     58e:	d0 f0       	ldw r0,r13
     590:	60 ab       	addi r0,-10
     592:	02 e0       	mov r2,r0
     594:	20 f2       	ldhu r0,r2
     596:	13 e0       	mov r3,r1
     598:	30 f6       	sth r0,r3
     59a:	47 0f       	ldli r7,-12
     59c:	7d f0       	ldw r13,r7
     59e:	cd a8       	addi r13,12
     5a0:	7d f5       	stw r13,r7
     5a2:	07 0f       	ldli r7,-16
     5a4:	0d 4c       	ldfpz_inc r13,0
     5a6:	7d f5       	stw r13,r7
     5a8:	0e f8       	rts
     5aa:	07 0f       	ldli r7,-16
     5ac:	7d f0       	ldw r13,r7
     5ae:	fd 5f       	stfpz_dec r13,-1
     5b0:	47 0f       	ldli r7,-12
     5b2:	7d f0       	ldw r13,r7
     5b4:	07 0f       	ldli r7,-16
     5b6:	7d f5       	stw r13,r7
     5b8:	47 0f       	ldli r7,-12
     5ba:	7d f0       	ldw r13,r7
     5bc:	4d ab       	addi r13,-12
     5be:	7d f5       	stw r13,r7
     5c0:	0d 0f       	ldli r13,-16
     5c2:	d0 f0       	ldw r0,r13
     5c4:	80 ab       	addi r0,-8
     5c6:	04 e0       	mov r4,r0
     5c8:	41 f5       	stw r1,r4
     5ca:	0d 0f       	ldli r13,-16
     5cc:	d0 f0       	ldw r0,r13
     5ce:	70 ab       	addi r0,-9
     5d0:	01 e0       	mov r1,r0
     5d2:	12 f7       	stb r2,r1
     5d4:	0d 0f       	ldli r13,-16
     5d6:	d0 f0       	ldw r0,r13
     5d8:	60 ab       	addi r0,-10
     5da:	02 e0       	mov r2,r0
     5dc:	23 f7       	stb r3,r2
     5de:	0d 0f       	ldli r13,-16
     5e0:	d0 f0       	ldw r0,r13
     5e2:	80 ab       	addi r0,-8
     5e4:	04 e0       	mov r4,r0
     5e6:	40 f0       	ldw r0,r4
     5e8:	01 e0       	mov r1,r0
     5ea:	10 f0       	ldw r0,r1
     5ec:	01 e0       	mov r1,r0
     5ee:	61 a8       	addi r1,6
     5f0:	0d 0f       	ldli r13,-16
     5f2:	d0 f0       	ldw r0,r13
     5f4:	c0 ab       	addi r0,-4
     5f6:	02 e0       	mov r2,r0
     5f8:	21 f5       	stw r1,r2
     5fa:	0d 0f       	ldli r13,-16
     5fc:	d0 f0       	ldw r0,r13
     5fe:	70 ab       	addi r0,-9
     600:	04 e0       	mov r4,r0
     602:	40 f4       	ldbu r0,r4
     604:	f1 03       	ldli r1,63
     606:	10 e5       	and r0,r1
     608:	60 a4       	bset r0,0x6
     60a:	01 e0       	mov r1,r0
     60c:	0d 0f       	ldli r13,-16
     60e:	d0 f0       	ldw r0,r13
     610:	c0 ab       	addi r0,-4
     612:	02 e0       	mov r2,r0
     614:	20 f0       	ldw r0,r2
     616:	04 e0       	mov r4,r0
     618:	41 f7       	stb r1,r4
     61a:	0d 0f       	ldli r13,-16
     61c:	d0 f0       	ldw r0,r13
     61e:	80 ab       	addi r0,-8
     620:	01 e0       	mov r1,r0
     622:	10 f0       	ldw r0,r1
     624:	02 e0       	mov r2,r0
     626:	20 f0       	ldw r0,r2
     628:	01 e0       	mov r1,r0
     62a:	71 a8       	addi r1,7
     62c:	0d 0f       	ldli r13,-16
     62e:	d0 f0       	ldw r0,r13
     630:	c0 ab       	addi r0,-4
     632:	04 e0       	mov r4,r0
     634:	41 f5       	stw r1,r4
     636:	0d 0f       	ldli r13,-16
     638:	d0 f0       	ldw r0,r13
     63a:	c0 ab       	addi r0,-4
     63c:	02 e0       	mov r2,r0
     63e:	21 f0       	ldw r1,r2
     640:	0d 0f       	ldli r13,-16
     642:	d0 f0       	ldw r0,r13
     644:	60 ab       	addi r0,-10
     646:	04 e0       	mov r4,r0
     648:	40 f4       	ldbu r0,r4
     64a:	12 e0       	mov r2,r1
     64c:	20 f7       	stb r0,r2
     64e:	47 0f       	ldli r7,-12
     650:	7d f0       	ldw r13,r7
     652:	cd a8       	addi r13,12
     654:	7d f5       	stw r13,r7
     656:	07 0f       	ldli r7,-16
     658:	0d 4c       	ldfpz_inc r13,0
     65a:	7d f5       	stw r13,r7
     65c:	0e f8       	rts
     65e:	fe 5f       	stfpz_dec r14,-1
     660:	07 0f       	ldli r7,-16
     662:	7d f0       	ldw r13,r7
     664:	fd 5f       	stfpz_dec r13,-1
     666:	47 0f       	ldli r7,-12
     668:	7d f0       	ldw r13,r7
     66a:	07 0f       	ldli r7,-16
     66c:	7d f5       	stw r13,r7
     66e:	47 0f       	ldli r7,-12
     670:	7d f0       	ldw r13,r7
     672:	0d ab       	addi r13,-16
     674:	7d f5       	stw r13,r7
     676:	0d 0f       	ldli r13,-16
     678:	d0 f0       	ldw r0,r13
     67a:	80 ab       	addi r0,-8
     67c:	04 e0       	mov r4,r0
     67e:	41 f5       	stw r1,r4
     680:	0d 0f       	ldli r13,-16
     682:	d0 f0       	ldw r0,r13
     684:	70 ab       	addi r0,-9
     686:	01 e0       	mov r1,r0
     688:	12 f7       	stb r2,r1
     68a:	0d 0f       	ldli r13,-16
     68c:	d0 f0       	ldw r0,r13
     68e:	60 ab       	addi r0,-10
     690:	02 e0       	mov r2,r0
     692:	23 f7       	stb r3,r2
     694:	0d 0f       	ldli r13,-16
     696:	d1 f0       	ldw r1,r13
     698:	c1 ab       	addi r1,-4
     69a:	00 00       	ldli r0,0
     69c:	14 e0       	mov r4,r1
     69e:	40 f5       	stw r0,r4
     6a0:	0d 0f       	ldli r13,-16
     6a2:	d1 f0       	ldw r1,r13
     6a4:	c1 ab       	addi r1,-4
     6a6:	00 00       	ldli r0,0
     6a8:	12 e0       	mov r2,r1
     6aa:	20 f5       	stw r0,r2
     6ac:	51 ac       	jmpi 81
     6ae:	0d 0f       	ldli r13,-16
     6b0:	d0 f0       	ldw r0,r13
     6b2:	c0 ab       	addi r0,-4
     6b4:	04 e0       	mov r4,r0
     6b6:	40 f0       	ldw r0,r4
     6b8:	01 e0       	mov r1,r0
     6ba:	0d 0f       	ldli r13,-16
     6bc:	d0 f0       	ldw r0,r13
     6be:	70 ab       	addi r0,-9
     6c0:	02 e0       	mov r2,r0
     6c2:	20 f4       	ldbu r0,r2
     6c4:	10 e1       	add r0,r1
     6c6:	04 e0       	mov r4,r0
     6c8:	0d 0f       	ldli r13,-16
     6ca:	d0 f0       	ldw r0,r13
     6cc:	60 ab       	addi r0,-10
     6ce:	01 e0       	mov r1,r0
     6d0:	10 f4       	ldbu r0,r1
     6d2:	82 01       	ldli r2,24
     6d4:	20 a0       	sl r0,r2
     6d6:	81 01       	ldli r1,24
     6d8:	10 a2       	sr r0,r1
     6da:	a2 00       	ldli r2,10
     6dc:	03 10       	ldhi r3,0
     6de:	03 20       	ldliu r3,0x0
     6e0:	83 a1       	sli r3,0x8
     6e2:	63 20       	ldliu r3,0x6
     6e4:	83 a1       	sli r3,0x8
     6e6:	53 2f       	ldliu r3,0xf5
     6e8:	01 e0       	mov r1,r0
     6ea:	03 ee       	jsr r3
     6ec:	03 e0       	mov r3,r0
     6ee:	0d 0f       	ldli r13,-16
     6f0:	d0 f0       	ldw r0,r13
     6f2:	80 ab       	addi r0,-8
     6f4:	02 e0       	mov r2,r0
     6f6:	20 f0       	ldw r0,r2
     6f8:	01 e0       	mov r1,r0
     6fa:	42 e0       	mov r2,r4
     6fc:	00 10       	ldhi r0,0
     6fe:	00 20       	ldliu r0,0x0
     700:	80 a1       	sli r0,0x8
     702:	20 20       	ldliu r0,0x2
     704:	80 a1       	sli r0,0x8
     706:	50 2d       	ldliu r0,0xd5
     708:	00 ee       	jsr r0
     70a:	0d 0f       	ldli r13,-16
     70c:	d4 f0       	ldw r4,r13
     70e:	64 ab       	addi r4,-10
     710:	0d 0f       	ldli r13,-16
     712:	d0 f0       	ldw r0,r13
     714:	60 ab       	addi r0,-10
     716:	01 e0       	mov r1,r0
     718:	10 f4       	ldbu r0,r1
     71a:	82 01       	ldli r2,24
     71c:	20 a0       	sl r0,r2
     71e:	81 01       	ldli r1,24
     720:	10 a2       	sr r0,r1
     722:	a2 00       	ldli r2,10
     724:	03 10       	ldhi r3,0
     726:	03 20       	ldliu r3,0x0
     728:	83 a1       	sli r3,0x8
     72a:	63 20       	ldliu r3,0x6
     72c:	83 a1       	sli r3,0x8
     72e:	23 2e       	ldliu r3,0xe2
     730:	01 e0       	mov r1,r0
     732:	03 ee       	jsr r3
     734:	42 e0       	mov r2,r4
     736:	20 f7       	stb r0,r2
     738:	0d 0f       	ldli r13,-16
     73a:	d1 f0       	ldw r1,r13
     73c:	c1 ab       	addi r1,-4
     73e:	0d 0f       	ldli r13,-16
     740:	d0 f0       	ldw r0,r13
     742:	c0 ab       	addi r0,-4
     744:	04 e0       	mov r4,r0
     746:	40 f0       	ldw r0,r4
     748:	10 a8       	addi r0,1
     74a:	12 e0       	mov r2,r1
     74c:	20 f5       	stw r0,r2
     74e:	0d 0f       	ldli r13,-16
     750:	d0 f0       	ldw r0,r13
     752:	80 ab       	addi r0,-8
     754:	04 e0       	mov r4,r0
     756:	40 f0       	ldw r0,r4
     758:	40 a8       	addi r0,4
     75a:	01 e0       	mov r1,r0
     75c:	10 f4       	ldbu r0,r1
     75e:	82 01       	ldli r2,24
     760:	20 a0       	sl r0,r2
     762:	84 01       	ldli r4,24
     764:	40 a2       	sr r0,r4
     766:	3d 00       	ldli r13,3
     768:	d0 b4       	cmpu_gt r0,r13
     76a:	12 9c       	jmpi_ct 18
     76c:	0d 0f       	ldli r13,-16
     76e:	d0 f0       	ldw r0,r13
     770:	80 ab       	addi r0,-8
     772:	01 e0       	mov r1,r0
     774:	10 f0       	ldw r0,r1
     776:	40 a8       	addi r0,4
     778:	02 e0       	mov r2,r0
     77a:	20 f4       	ldbu r0,r2
     77c:	04 e0       	mov r4,r0
     77e:	81 01       	ldli r1,24
     780:	14 a0       	sl r4,r1
     782:	c4 7b       	stfpy r4,-4
     784:	c2 6b       	ldfpy r2,-4
     786:	84 01       	ldli r4,24
     788:	42 a2       	sr r2,r4
     78a:	c2 7b       	stfpy r2,-4
     78c:	03 ac       	jmpi 3
     78e:	30 00       	ldli r0,3
     790:	c0 7b       	stfpy r0,-4
     792:	0d 0f       	ldli r13,-16
     794:	d0 f0       	ldw r0,r13
     796:	c0 ab       	addi r0,-4
     798:	01 e0       	mov r1,r0
     79a:	10 f0       	ldw r0,r1
     79c:	c2 6b       	ldfpy r2,-4
     79e:	02 b2       	cmp_gt r2,r0
     7a0:	87 9f       	jmpi_ct -121
     7a2:	47 0f       	ldli r7,-12
     7a4:	7d f0       	ldw r13,r7
     7a6:	06 01       	ldli r6,16
     7a8:	6d e1       	add r13,r6
     7aa:	7d f5       	stw r13,r7
     7ac:	07 0f       	ldli r7,-16
     7ae:	0d 4c       	ldfpz_inc r13,0
     7b0:	7d f5       	stw r13,r7
     7b2:	0e 4c       	ldfpz_inc r14,0
     7b4:	0e f8       	rts
     7b6:	fe 5f       	stfpz_dec r14,-1
     7b8:	07 0f       	ldli r7,-16
     7ba:	7d f0       	ldw r13,r7
     7bc:	fd 5f       	stfpz_dec r13,-1
     7be:	47 0f       	ldli r7,-12
     7c0:	7d f0       	ldw r13,r7
     7c2:	07 0f       	ldli r7,-16
     7c4:	7d f5       	stw r13,r7
     7c6:	47 0f       	ldli r7,-12
     7c8:	7d f0       	ldw r13,r7
     7ca:	0d ab       	addi r13,-16
     7cc:	7d f5       	stw r13,r7
     7ce:	0d 0f       	ldli r13,-16
     7d0:	d0 f0       	ldw r0,r13
     7d2:	80 ab       	addi r0,-8
     7d4:	04 e0       	mov r4,r0
     7d6:	41 f5       	stw r1,r4
     7d8:	0d 0f       	ldli r13,-16
     7da:	d0 f0       	ldw r0,r13
     7dc:	70 ab       	addi r0,-9
     7de:	01 e0       	mov r1,r0
     7e0:	12 f7       	stb r2,r1
     7e2:	0d 0f       	ldli r13,-16
     7e4:	d0 f0       	ldw r0,r13
     7e6:	40 ab       	addi r0,-12
     7e8:	02 e0       	mov r2,r0
     7ea:	23 f6       	sth r3,r2
     7ec:	0d 0f       	ldli r13,-16
     7ee:	d1 f0       	ldw r1,r13
     7f0:	c1 ab       	addi r1,-4
     7f2:	00 00       	ldli r0,0
     7f4:	14 e0       	mov r4,r1
     7f6:	40 f5       	stw r0,r4
     7f8:	0d 0f       	ldli r13,-16
     7fa:	d1 f0       	ldw r1,r13
     7fc:	c1 ab       	addi r1,-4
     7fe:	00 00       	ldli r0,0
     800:	12 e0       	mov r2,r1
     802:	20 f5       	stw r0,r2
     804:	51 ac       	jmpi 81
     806:	0d 0f       	ldli r13,-16
     808:	d0 f0       	ldw r0,r13
     80a:	c0 ab       	addi r0,-4
     80c:	04 e0       	mov r4,r0
     80e:	40 f0       	ldw r0,r4
     810:	01 e0       	mov r1,r0
     812:	0d 0f       	ldli r13,-16
     814:	d0 f0       	ldw r0,r13
     816:	70 ab       	addi r0,-9
     818:	02 e0       	mov r2,r0
     81a:	20 f4       	ldbu r0,r2
     81c:	10 e1       	add r0,r1
     81e:	04 e0       	mov r4,r0
     820:	0d 0f       	ldli r13,-16
     822:	d0 f0       	ldw r0,r13
     824:	40 ab       	addi r0,-12
     826:	01 e0       	mov r1,r0
     828:	10 f2       	ldhu r0,r1
     82a:	02 01       	ldli r2,16
     82c:	20 a0       	sl r0,r2
     82e:	01 01       	ldli r1,16
     830:	10 a2       	sr r0,r1
     832:	a2 00       	ldli r2,10
     834:	03 10       	ldhi r3,0
     836:	03 20       	ldliu r3,0x0
     838:	83 a1       	sli r3,0x8
     83a:	63 20       	ldliu r3,0x6
     83c:	83 a1       	sli r3,0x8
     83e:	53 2f       	ldliu r3,0xf5
     840:	01 e0       	mov r1,r0
     842:	03 ee       	jsr r3
     844:	03 e0       	mov r3,r0
     846:	0d 0f       	ldli r13,-16
     848:	d0 f0       	ldw r0,r13
     84a:	80 ab       	addi r0,-8
     84c:	02 e0       	mov r2,r0
     84e:	20 f0       	ldw r0,r2
     850:	01 e0       	mov r1,r0
     852:	42 e0       	mov r2,r4
     854:	00 10       	ldhi r0,0
     856:	00 20       	ldliu r0,0x0
     858:	80 a1       	sli r0,0x8
     85a:	20 20       	ldliu r0,0x2
     85c:	80 a1       	sli r0,0x8
     85e:	50 2d       	ldliu r0,0xd5
     860:	00 ee       	jsr r0
     862:	0d 0f       	ldli r13,-16
     864:	d4 f0       	ldw r4,r13
     866:	44 ab       	addi r4,-12
     868:	0d 0f       	ldli r13,-16
     86a:	d0 f0       	ldw r0,r13
     86c:	40 ab       	addi r0,-12
     86e:	01 e0       	mov r1,r0
     870:	10 f2       	ldhu r0,r1
     872:	02 01       	ldli r2,16
     874:	20 a0       	sl r0,r2
     876:	01 01       	ldli r1,16
     878:	10 a2       	sr r0,r1
     87a:	a2 00       	ldli r2,10
     87c:	03 10       	ldhi r3,0
     87e:	03 20       	ldliu r3,0x0
     880:	83 a1       	sli r3,0x8
     882:	63 20       	ldliu r3,0x6
     884:	83 a1       	sli r3,0x8
     886:	23 2e       	ldliu r3,0xe2
     888:	01 e0       	mov r1,r0
     88a:	03 ee       	jsr r3
     88c:	42 e0       	mov r2,r4
     88e:	20 f6       	sth r0,r2
     890:	0d 0f       	ldli r13,-16
     892:	d1 f0       	ldw r1,r13
     894:	c1 ab       	addi r1,-4
     896:	0d 0f       	ldli r13,-16
     898:	d0 f0       	ldw r0,r13
     89a:	c0 ab       	addi r0,-4
     89c:	04 e0       	mov r4,r0
     89e:	40 f0       	ldw r0,r4
     8a0:	10 a8       	addi r0,1
     8a2:	12 e0       	mov r2,r1
     8a4:	20 f5       	stw r0,r2
     8a6:	0d 0f       	ldli r13,-16
     8a8:	d0 f0       	ldw r0,r13
     8aa:	80 ab       	addi r0,-8
     8ac:	04 e0       	mov r4,r0
     8ae:	40 f0       	ldw r0,r4
     8b0:	40 a8       	addi r0,4
     8b2:	01 e0       	mov r1,r0
     8b4:	10 f4       	ldbu r0,r1
     8b6:	82 01       	ldli r2,24
     8b8:	20 a0       	sl r0,r2
     8ba:	84 01       	ldli r4,24
     8bc:	40 a2       	sr r0,r4
     8be:	5d 00       	ldli r13,5
     8c0:	d0 b4       	cmpu_gt r0,r13
     8c2:	12 9c       	jmpi_ct 18
     8c4:	0d 0f       	ldli r13,-16
     8c6:	d0 f0       	ldw r0,r13
     8c8:	80 ab       	addi r0,-8
     8ca:	01 e0       	mov r1,r0
     8cc:	10 f0       	ldw r0,r1
     8ce:	40 a8       	addi r0,4
     8d0:	02 e0       	mov r2,r0
     8d2:	20 f4       	ldbu r0,r2
     8d4:	04 e0       	mov r4,r0
     8d6:	81 01       	ldli r1,24
     8d8:	14 a0       	sl r4,r1
     8da:	c4 7b       	stfpy r4,-4
     8dc:	c2 6b       	ldfpy r2,-4
     8de:	84 01       	ldli r4,24
     8e0:	42 a2       	sr r2,r4
     8e2:	c2 7b       	stfpy r2,-4
     8e4:	03 ac       	jmpi 3
     8e6:	50 00       	ldli r0,5
     8e8:	c0 7b       	stfpy r0,-4
     8ea:	0d 0f       	ldli r13,-16
     8ec:	d0 f0       	ldw r0,r13
     8ee:	c0 ab       	addi r0,-4
     8f0:	01 e0       	mov r1,r0
     8f2:	10 f0       	ldw r0,r1
     8f4:	c2 6b       	ldfpy r2,-4
     8f6:	02 b2       	cmp_gt r2,r0
     8f8:	87 9f       	jmpi_ct -121
     8fa:	47 0f       	ldli r7,-12
     8fc:	7d f0       	ldw r13,r7
     8fe:	06 01       	ldli r6,16
     900:	6d e1       	add r13,r6
     902:	7d f5       	stw r13,r7
     904:	07 0f       	ldli r7,-16
     906:	0d 4c       	ldfpz_inc r13,0
     908:	7d f5       	stw r13,r7
     90a:	0e 4c       	ldfpz_inc r14,0
     90c:	0e f8       	rts
     90e:	fe 5f       	stfpz_dec r14,-1
     910:	07 0f       	ldli r7,-16
     912:	7d f0       	ldw r13,r7
     914:	fd 5f       	stfpz_dec r13,-1
     916:	47 0f       	ldli r7,-12
     918:	7d f0       	ldw r13,r7
     91a:	07 0f       	ldli r7,-16
     91c:	7d f5       	stw r13,r7
     91e:	47 0f       	ldli r7,-12
     920:	7d f0       	ldw r13,r7
     922:	c6 0e       	ldli r6,-20
     924:	6d e1       	add r13,r6
     926:	7d f5       	stw r13,r7
     928:	0d 0f       	ldli r13,-16
     92a:	d0 f0       	ldw r0,r13
     92c:	80 ab       	addi r0,-8
     92e:	04 e0       	mov r4,r0
     930:	41 f5       	stw r1,r4
     932:	0d 0f       	ldli r13,-16
     934:	d0 f0       	ldw r0,r13
     936:	70 ab       	addi r0,-9
     938:	01 e0       	mov r1,r0
     93a:	12 f7       	stb r2,r1
     93c:	0d 0f       	ldli r13,-16
     93e:	d0 f0       	ldw r0,r13
     940:	00 ab       	addi r0,-16
     942:	02 e0       	mov r2,r0
     944:	23 f5       	stw r3,r2
     946:	0d 0f       	ldli r13,-16
     948:	d1 f0       	ldw r1,r13
     94a:	c1 ab       	addi r1,-4
     94c:	00 00       	ldli r0,0
     94e:	14 e0       	mov r4,r1
     950:	40 f5       	stw r0,r4
     952:	0d 0f       	ldli r13,-16
     954:	d1 f0       	ldw r1,r13
     956:	c1 ab       	addi r1,-4
     958:	00 00       	ldli r0,0
     95a:	12 e0       	mov r2,r1
     95c:	20 f5       	stw r0,r2
     95e:	49 ac       	jmpi 73
     960:	0d 0f       	ldli r13,-16
     962:	d0 f0       	ldw r0,r13
     964:	c0 ab       	addi r0,-4
     966:	04 e0       	mov r4,r0
     968:	40 f0       	ldw r0,r4
     96a:	01 e0       	mov r1,r0
     96c:	0d 0f       	ldli r13,-16
     96e:	d0 f0       	ldw r0,r13
     970:	70 ab       	addi r0,-9
     972:	02 e0       	mov r2,r0
     974:	20 f4       	ldbu r0,r2
     976:	10 e1       	add r0,r1
     978:	04 e0       	mov r4,r0
     97a:	0d 0f       	ldli r13,-16
     97c:	d0 f0       	ldw r0,r13
     97e:	00 ab       	addi r0,-16
     980:	01 e0       	mov r1,r0
     982:	10 f0       	ldw r0,r1
     984:	a2 00       	ldli r2,10
     986:	03 10       	ldhi r3,0
     988:	03 20       	ldliu r3,0x0
     98a:	83 a1       	sli r3,0x8
     98c:	63 20       	ldliu r3,0x6
     98e:	83 a1       	sli r3,0x8
     990:	53 2f       	ldliu r3,0xf5
     992:	01 e0       	mov r1,r0
     994:	03 ee       	jsr r3
     996:	03 e0       	mov r3,r0
     998:	0d 0f       	ldli r13,-16
     99a:	d0 f0       	ldw r0,r13
     99c:	80 ab       	addi r0,-8
     99e:	02 e0       	mov r2,r0
     9a0:	20 f0       	ldw r0,r2
     9a2:	01 e0       	mov r1,r0
     9a4:	42 e0       	mov r2,r4
     9a6:	00 10       	ldhi r0,0
     9a8:	00 20       	ldliu r0,0x0
     9aa:	80 a1       	sli r0,0x8
     9ac:	20 20       	ldliu r0,0x2
     9ae:	80 a1       	sli r0,0x8
     9b0:	50 2d       	ldliu r0,0xd5
     9b2:	00 ee       	jsr r0
     9b4:	0d 0f       	ldli r13,-16
     9b6:	d4 f0       	ldw r4,r13
     9b8:	04 ab       	addi r4,-16
     9ba:	0d 0f       	ldli r13,-16
     9bc:	d0 f0       	ldw r0,r13
     9be:	00 ab       	addi r0,-16
     9c0:	01 e0       	mov r1,r0
     9c2:	10 f0       	ldw r0,r1
     9c4:	a2 00       	ldli r2,10
     9c6:	03 10       	ldhi r3,0
     9c8:	03 20       	ldliu r3,0x0
     9ca:	83 a1       	sli r3,0x8
     9cc:	63 20       	ldliu r3,0x6
     9ce:	83 a1       	sli r3,0x8
     9d0:	23 2e       	ldliu r3,0xe2
     9d2:	01 e0       	mov r1,r0
     9d4:	03 ee       	jsr r3
     9d6:	42 e0       	mov r2,r4
     9d8:	20 f5       	stw r0,r2
     9da:	0d 0f       	ldli r13,-16
     9dc:	d1 f0       	ldw r1,r13
     9de:	c1 ab       	addi r1,-4
     9e0:	0d 0f       	ldli r13,-16
     9e2:	d0 f0       	ldw r0,r13
     9e4:	c0 ab       	addi r0,-4
     9e6:	04 e0       	mov r4,r0
     9e8:	40 f0       	ldw r0,r4
     9ea:	10 a8       	addi r0,1
     9ec:	12 e0       	mov r2,r1
     9ee:	20 f5       	stw r0,r2
     9f0:	0d 0f       	ldli r13,-16
     9f2:	d0 f0       	ldw r0,r13
     9f4:	80 ab       	addi r0,-8
     9f6:	04 e0       	mov r4,r0
     9f8:	40 f0       	ldw r0,r4
     9fa:	40 a8       	addi r0,4
     9fc:	01 e0       	mov r1,r0
     9fe:	10 f4       	ldbu r0,r1
     a00:	82 01       	ldli r2,24
     a02:	20 a0       	sl r0,r2
     a04:	84 01       	ldli r4,24
     a06:	40 a2       	sr r0,r4
     a08:	ad 00       	ldli r13,10
     a0a:	d0 b4       	cmpu_gt r0,r13
     a0c:	12 9c       	jmpi_ct 18
     a0e:	0d 0f       	ldli r13,-16
     a10:	d0 f0       	ldw r0,r13
     a12:	80 ab       	addi r0,-8
     a14:	01 e0       	mov r1,r0
     a16:	10 f0       	ldw r0,r1
     a18:	40 a8       	addi r0,4
     a1a:	02 e0       	mov r2,r0
     a1c:	20 f4       	ldbu r0,r2
     a1e:	04 e0       	mov r4,r0
     a20:	81 01       	ldli r1,24
     a22:	14 a0       	sl r4,r1
     a24:	b4 7b       	stfpy r4,-5
     a26:	b2 6b       	ldfpy r2,-5
     a28:	84 01       	ldli r4,24
     a2a:	42 a2       	sr r2,r4
     a2c:	b2 7b       	stfpy r2,-5
     a2e:	03 ac       	jmpi 3
     a30:	a0 00       	ldli r0,10
     a32:	b0 7b       	stfpy r0,-5
     a34:	0d 0f       	ldli r13,-16
     a36:	d0 f0       	ldw r0,r13
     a38:	c0 ab       	addi r0,-4
     a3a:	01 e0       	mov r1,r0
     a3c:	10 f0       	ldw r0,r1
     a3e:	b2 6b       	ldfpy r2,-5
     a40:	02 b2       	cmp_gt r2,r0
     a42:	8f 9f       	jmpi_ct -113
     a44:	47 0f       	ldli r7,-12
     a46:	7d f0       	ldw r13,r7
     a48:	46 01       	ldli r6,20
     a4a:	6d e1       	add r13,r6
     a4c:	7d f5       	stw r13,r7
     a4e:	07 0f       	ldli r7,-16
     a50:	0d 4c       	ldfpz_inc r13,0
     a52:	7d f5       	stw r13,r7
     a54:	0e 4c       	ldfpz_inc r14,0
     a56:	0e f8       	rts
     a58:	fe 5f       	stfpz_dec r14,-1
     a5a:	07 0f       	ldli r7,-16
     a5c:	7d f0       	ldw r13,r7
     a5e:	fd 5f       	stfpz_dec r13,-1
     a60:	47 0f       	ldli r7,-12
     a62:	7d f0       	ldw r13,r7
     a64:	07 0f       	ldli r7,-16
     a66:	7d f5       	stw r13,r7
     a68:	47 0f       	ldli r7,-12
     a6a:	7d f0       	ldw r13,r7
     a6c:	8d ab       	addi r13,-8
     a6e:	7d f5       	stw r13,r7
     a70:	0d 0f       	ldli r13,-16
     a72:	d0 f0       	ldw r0,r13
     a74:	c0 ab       	addi r0,-4
     a76:	04 e0       	mov r4,r0
     a78:	41 f5       	stw r1,r4
     a7a:	0d 0f       	ldli r13,-16
     a7c:	d0 f0       	ldw r0,r13
     a7e:	b0 ab       	addi r0,-5
     a80:	01 e0       	mov r1,r0
     a82:	12 f7       	stb r2,r1
     a84:	0d 0f       	ldli r13,-16
     a86:	d0 f0       	ldw r0,r13
     a88:	a0 ab       	addi r0,-6
     a8a:	02 e0       	mov r2,r0
     a8c:	23 f7       	stb r3,r2
     a8e:	0d 0f       	ldli r13,-16
     a90:	d0 f0       	ldw r0,r13
     a92:	a0 ab       	addi r0,-6
     a94:	04 e0       	mov r4,r0
     a96:	40 f4       	ldbu r0,r4
     a98:	f1 00       	ldli r1,15
     a9a:	10 e5       	and r0,r1
     a9c:	03 e0       	mov r3,r0
     a9e:	0d 0f       	ldli r13,-16
     aa0:	d0 f0       	ldw r0,r13
     aa2:	c0 ab       	addi r0,-4
     aa4:	02 e0       	mov r2,r0
     aa6:	21 f0       	ldw r1,r2
     aa8:	0d 0f       	ldli r13,-16
     aaa:	d0 f0       	ldw r0,r13
     aac:	b0 ab       	addi r0,-5
     aae:	04 e0       	mov r4,r0
     ab0:	40 f4       	ldbu r0,r4
     ab2:	02 e0       	mov r2,r0
     ab4:	00 10       	ldhi r0,0
     ab6:	00 20       	ldliu r0,0x0
     ab8:	80 a1       	sli r0,0x8
     aba:	20 20       	ldliu r0,0x2
     abc:	80 a1       	sli r0,0x8
     abe:	50 2d       	ldliu r0,0xd5
     ac0:	00 ee       	jsr r0
     ac2:	0d 0f       	ldli r13,-16
     ac4:	d0 f0       	ldw r0,r13
     ac6:	b0 ab       	addi r0,-5
     ac8:	01 e0       	mov r1,r0
     aca:	10 f4       	ldbu r0,r1
     acc:	10 a8       	addi r0,1
     ace:	02 e0       	mov r2,r0
     ad0:	0d 0f       	ldli r13,-16
     ad2:	d0 f0       	ldw r0,r13
     ad4:	a0 ab       	addi r0,-6
     ad6:	04 e0       	mov r4,r0
     ad8:	40 f4       	ldbu r0,r4
     ada:	81 01       	ldli r1,24
     adc:	10 a0       	sl r0,r1
     ade:	84 01       	ldli r4,24
     ae0:	40 a2       	sr r0,r4
     ae2:	40 a3       	sri r0,0x4
     ae4:	03 e0       	mov r3,r0
     ae6:	0d 0f       	ldli r13,-16
     ae8:	d0 f0       	ldw r0,r13
     aea:	c0 ab       	addi r0,-4
     aec:	01 e0       	mov r1,r0
     aee:	10 f0       	ldw r0,r1
     af0:	01 e0       	mov r1,r0
     af2:	00 10       	ldhi r0,0
     af4:	00 20       	ldliu r0,0x0
     af6:	80 a1       	sli r0,0x8
     af8:	20 20       	ldliu r0,0x2
     afa:	80 a1       	sli r0,0x8
     afc:	50 2d       	ldliu r0,0xd5
     afe:	00 ee       	jsr r0
     b00:	47 0f       	ldli r7,-12
     b02:	7d f0       	ldw r13,r7
     b04:	8d a8       	addi r13,8
     b06:	7d f5       	stw r13,r7
     b08:	07 0f       	ldli r7,-16
     b0a:	0d 4c       	ldfpz_inc r13,0
     b0c:	7d f5       	stw r13,r7
     b0e:	0e 4c       	ldfpz_inc r14,0
     b10:	0e f8       	rts
     b12:	fe 5f       	stfpz_dec r14,-1
     b14:	07 0f       	ldli r7,-16
     b16:	7d f0       	ldw r13,r7
     b18:	fd 5f       	stfpz_dec r13,-1
     b1a:	47 0f       	ldli r7,-12
     b1c:	7d f0       	ldw r13,r7
     b1e:	07 0f       	ldli r7,-16
     b20:	7d f5       	stw r13,r7
     b22:	47 0f       	ldli r7,-12
     b24:	7d f0       	ldw r13,r7
     b26:	4d ab       	addi r13,-12
     b28:	7d f5       	stw r13,r7
     b2a:	0d 0f       	ldli r13,-16
     b2c:	d0 f0       	ldw r0,r13
     b2e:	80 ab       	addi r0,-8
     b30:	04 e0       	mov r4,r0
     b32:	41 f5       	stw r1,r4
     b34:	0d 0f       	ldli r13,-16
     b36:	d0 f0       	ldw r0,r13
     b38:	70 ab       	addi r0,-9
     b3a:	01 e0       	mov r1,r0
     b3c:	12 f7       	stb r2,r1
     b3e:	0d 0f       	ldli r13,-16
     b40:	d0 f0       	ldw r0,r13
     b42:	40 ab       	addi r0,-12
     b44:	02 e0       	mov r2,r0
     b46:	23 f6       	sth r3,r2
     b48:	0d 0f       	ldli r13,-16
     b4a:	d1 f0       	ldw r1,r13
     b4c:	c1 ab       	addi r1,-4
     b4e:	00 00       	ldli r0,0
     b50:	13 e0       	mov r3,r1
     b52:	30 f5       	stw r0,r3
     b54:	0d 0f       	ldli r13,-16
     b56:	d1 f0       	ldw r1,r13
     b58:	c1 ab       	addi r1,-4
     b5a:	00 00       	ldli r0,0
     b5c:	14 e0       	mov r4,r1
     b5e:	40 f5       	stw r0,r4
     b60:	3c ac       	jmpi 60
     b62:	0d 0f       	ldli r13,-16
     b64:	d0 f0       	ldw r0,r13
     b66:	c0 ab       	addi r0,-4
     b68:	01 e0       	mov r1,r0
     b6a:	10 f0       	ldw r0,r1
     b6c:	01 e0       	mov r1,r0
     b6e:	0d 0f       	ldli r13,-16
     b70:	d0 f0       	ldw r0,r13
     b72:	70 ab       	addi r0,-9
     b74:	02 e0       	mov r2,r0
     b76:	20 f4       	ldbu r0,r2
     b78:	10 e1       	add r0,r1
     b7a:	02 e0       	mov r2,r0
     b7c:	0d 0f       	ldli r13,-16
     b7e:	d0 f0       	ldw r0,r13
     b80:	40 ab       	addi r0,-12
     b82:	03 e0       	mov r3,r0
     b84:	30 f2       	ldhu r0,r3
     b86:	01 e0       	mov r1,r0
     b88:	04 01       	ldli r4,16
     b8a:	41 a0       	sl r1,r4
     b8c:	00 01       	ldli r0,16
     b8e:	01 a2       	sr r1,r0
     b90:	0d 0f       	ldli r13,-16
     b92:	d0 f0       	ldw r0,r13
     b94:	c0 ab       	addi r0,-4
     b96:	03 e0       	mov r3,r0
     b98:	30 f0       	ldw r0,r3
     b9a:	20 a1       	sli r0,0x2
     b9c:	14 e0       	mov r4,r1
     b9e:	04 e8       	sra r4,r0
     ba0:	40 e0       	mov r0,r4
     ba2:	f1 00       	ldli r1,15
     ba4:	10 e5       	and r0,r1
     ba6:	03 e0       	mov r3,r0
     ba8:	0d 0f       	ldli r13,-16
     baa:	d0 f0       	ldw r0,r13
     bac:	80 ab       	addi r0,-8
     bae:	04 e0       	mov r4,r0
     bb0:	40 f0       	ldw r0,r4
     bb2:	01 e0       	mov r1,r0
     bb4:	00 10       	ldhi r0,0
     bb6:	00 20       	ldliu r0,0x0
     bb8:	80 a1       	sli r0,0x8
     bba:	20 20       	ldliu r0,0x2
     bbc:	80 a1       	sli r0,0x8
     bbe:	50 2d       	ldliu r0,0xd5
     bc0:	00 ee       	jsr r0
     bc2:	0d 0f       	ldli r13,-16
     bc4:	d1 f0       	ldw r1,r13
     bc6:	c1 ab       	addi r1,-4
     bc8:	0d 0f       	ldli r13,-16
     bca:	d0 f0       	ldw r0,r13
     bcc:	c0 ab       	addi r0,-4
     bce:	02 e0       	mov r2,r0
     bd0:	20 f0       	ldw r0,r2
     bd2:	10 a8       	addi r0,1
     bd4:	13 e0       	mov r3,r1
     bd6:	30 f5       	stw r0,r3
     bd8:	0d 0f       	ldli r13,-16
     bda:	d0 f0       	ldw r0,r13
     bdc:	c0 ab       	addi r0,-4
     bde:	04 e0       	mov r4,r0
     be0:	40 f0       	ldw r0,r4
     be2:	30 38       	cmpi_gt r0,3
     be4:	bf 8f       	jmpi_cf -65
     be6:	47 0f       	ldli r7,-12
     be8:	7d f0       	ldw r13,r7
     bea:	cd a8       	addi r13,12
     bec:	7d f5       	stw r13,r7
     bee:	07 0f       	ldli r7,-16
     bf0:	0d 4c       	ldfpz_inc r13,0
     bf2:	7d f5       	stw r13,r7
     bf4:	0e 4c       	ldfpz_inc r14,0
     bf6:	0e f8       	rts
     bf8:	fe 5f       	stfpz_dec r14,-1
     bfa:	07 0f       	ldli r7,-16
     bfc:	7d f0       	ldw r13,r7
     bfe:	fd 5f       	stfpz_dec r13,-1
     c00:	47 0f       	ldli r7,-12
     c02:	7d f0       	ldw r13,r7
     c04:	07 0f       	ldli r7,-16
     c06:	7d f5       	stw r13,r7
     c08:	47 0f       	ldli r7,-12
     c0a:	7d f0       	ldw r13,r7
     c0c:	0d ab       	addi r13,-16
     c0e:	7d f5       	stw r13,r7
     c10:	0d 0f       	ldli r13,-16
     c12:	d0 f0       	ldw r0,r13
     c14:	80 ab       	addi r0,-8
     c16:	04 e0       	mov r4,r0
     c18:	41 f5       	stw r1,r4
     c1a:	0d 0f       	ldli r13,-16
     c1c:	d0 f0       	ldw r0,r13
     c1e:	70 ab       	addi r0,-9
     c20:	01 e0       	mov r1,r0
     c22:	12 f7       	stb r2,r1
     c24:	0d 0f       	ldli r13,-16
     c26:	d0 f0       	ldw r0,r13
     c28:	00 ab       	addi r0,-16
     c2a:	02 e0       	mov r2,r0
     c2c:	23 f5       	stw r3,r2
     c2e:	0d 0f       	ldli r13,-16
     c30:	d1 f0       	ldw r1,r13
     c32:	c1 ab       	addi r1,-4
     c34:	00 00       	ldli r0,0
     c36:	13 e0       	mov r3,r1
     c38:	30 f5       	stw r0,r3
     c3a:	0d 0f       	ldli r13,-16
     c3c:	d1 f0       	ldw r1,r13
     c3e:	c1 ab       	addi r1,-4
     c40:	00 00       	ldli r0,0
     c42:	14 e0       	mov r4,r1
     c44:	40 f5       	stw r0,r4
     c46:	36 ac       	jmpi 54
     c48:	0d 0f       	ldli r13,-16
     c4a:	d0 f0       	ldw r0,r13
     c4c:	c0 ab       	addi r0,-4
     c4e:	01 e0       	mov r1,r0
     c50:	10 f0       	ldw r0,r1
     c52:	01 e0       	mov r1,r0
     c54:	0d 0f       	ldli r13,-16
     c56:	d0 f0       	ldw r0,r13
     c58:	70 ab       	addi r0,-9
     c5a:	02 e0       	mov r2,r0
     c5c:	20 f4       	ldbu r0,r2
     c5e:	10 e1       	add r0,r1
     c60:	02 e0       	mov r2,r0
     c62:	0d 0f       	ldli r13,-16
     c64:	d0 f0       	ldw r0,r13
     c66:	c0 ab       	addi r0,-4
     c68:	03 e0       	mov r3,r0
     c6a:	30 f0       	ldw r0,r3
     c6c:	01 e0       	mov r1,r0
     c6e:	21 a1       	sli r1,0x2
     c70:	0d 0f       	ldli r13,-16
     c72:	d0 f0       	ldw r0,r13
     c74:	00 ab       	addi r0,-16
     c76:	04 e0       	mov r4,r0
     c78:	40 f0       	ldw r0,r4
     c7a:	10 a2       	sr r0,r1
     c7c:	f1 00       	ldli r1,15
     c7e:	10 e5       	and r0,r1
     c80:	03 e0       	mov r3,r0
     c82:	0d 0f       	ldli r13,-16
     c84:	d0 f0       	ldw r0,r13
     c86:	80 ab       	addi r0,-8
     c88:	04 e0       	mov r4,r0
     c8a:	40 f0       	ldw r0,r4
     c8c:	01 e0       	mov r1,r0
     c8e:	00 10       	ldhi r0,0
     c90:	00 20       	ldliu r0,0x0
     c92:	80 a1       	sli r0,0x8
     c94:	20 20       	ldliu r0,0x2
     c96:	80 a1       	sli r0,0x8
     c98:	50 2d       	ldliu r0,0xd5
     c9a:	00 ee       	jsr r0
     c9c:	0d 0f       	ldli r13,-16
     c9e:	d1 f0       	ldw r1,r13
     ca0:	c1 ab       	addi r1,-4
     ca2:	0d 0f       	ldli r13,-16
     ca4:	d0 f0       	ldw r0,r13
     ca6:	c0 ab       	addi r0,-4
     ca8:	02 e0       	mov r2,r0
     caa:	20 f0       	ldw r0,r2
     cac:	10 a8       	addi r0,1
     cae:	13 e0       	mov r3,r1
     cb0:	30 f5       	stw r0,r3
     cb2:	0d 0f       	ldli r13,-16
     cb4:	d0 f0       	ldw r0,r13
     cb6:	c0 ab       	addi r0,-4
     cb8:	04 e0       	mov r4,r0
     cba:	40 f0       	ldw r0,r4
     cbc:	70 38       	cmpi_gt r0,7
     cbe:	c5 8f       	jmpi_cf -59
     cc0:	47 0f       	ldli r7,-12
     cc2:	7d f0       	ldw r13,r7
     cc4:	06 01       	ldli r6,16
     cc6:	6d e1       	add r13,r6
     cc8:	7d f5       	stw r13,r7
     cca:	07 0f       	ldli r7,-16
     ccc:	0d 4c       	ldfpz_inc r13,0
     cce:	7d f5       	stw r13,r7
     cd0:	0e 4c       	ldfpz_inc r14,0
     cd2:	0e f8       	rts
     cd4:	07 0f       	ldli r7,-16
     cd6:	7d f0       	ldw r13,r7
     cd8:	fd 5f       	stfpz_dec r13,-1
     cda:	47 0f       	ldli r7,-12
     cdc:	7d f0       	ldw r13,r7
     cde:	07 0f       	ldli r7,-16
     ce0:	7d f5       	stw r13,r7
     ce2:	47 0f       	ldli r7,-12
     ce4:	7d f0       	ldw r13,r7
     ce6:	4d ab       	addi r13,-12
     ce8:	7d f5       	stw r13,r7
     cea:	0d 0f       	ldli r13,-16
     cec:	d0 f0       	ldw r0,r13
     cee:	80 ab       	addi r0,-8
     cf0:	03 e0       	mov r3,r0
     cf2:	31 f5       	stw r1,r3
     cf4:	0d 0f       	ldli r13,-16
     cf6:	d0 f0       	ldw r0,r13
     cf8:	70 ab       	addi r0,-9
     cfa:	01 e0       	mov r1,r0
     cfc:	12 f7       	stb r2,r1
     cfe:	0d 0f       	ldli r13,-16
     d00:	d0 f0       	ldw r0,r13
     d02:	80 ab       	addi r0,-8
     d04:	02 e0       	mov r2,r0
     d06:	20 f0       	ldw r0,r2
     d08:	03 e0       	mov r3,r0
     d0a:	30 f0       	ldw r0,r3
     d0c:	01 e0       	mov r1,r0
     d0e:	61 a8       	addi r1,6
     d10:	0d 0f       	ldli r13,-16
     d12:	d0 f0       	ldw r0,r13
     d14:	c0 ab       	addi r0,-4
     d16:	02 e0       	mov r2,r0
     d18:	21 f5       	stw r1,r2
     d1a:	0d 0f       	ldli r13,-16
     d1c:	d0 f0       	ldw r0,r13
     d1e:	70 ab       	addi r0,-9
     d20:	03 e0       	mov r3,r0
     d22:	30 f4       	ldbu r0,r3
     d24:	f1 03       	ldli r1,63
     d26:	10 e5       	and r0,r1
     d28:	01 e0       	mov r1,r0
     d2a:	00 0c       	ldli r0,-64
     d2c:	10 e6       	or r0,r1
     d2e:	01 e0       	mov r1,r0
     d30:	0d 0f       	ldli r13,-16
     d32:	d0 f0       	ldw r0,r13
     d34:	c0 ab       	addi r0,-4
     d36:	02 e0       	mov r2,r0
     d38:	20 f0       	ldw r0,r2
     d3a:	03 e0       	mov r3,r0
     d3c:	31 f7       	stb r1,r3
     d3e:	0d 0f       	ldli r13,-16
     d40:	d0 f0       	ldw r0,r13
     d42:	80 ab       	addi r0,-8
     d44:	01 e0       	mov r1,r0
     d46:	10 f0       	ldw r0,r1
     d48:	02 e0       	mov r2,r0
     d4a:	20 f0       	ldw r0,r2
     d4c:	01 e0       	mov r1,r0
     d4e:	71 a8       	addi r1,7
     d50:	0d 0f       	ldli r13,-16
     d52:	d0 f0       	ldw r0,r13
     d54:	c0 ab       	addi r0,-4
     d56:	03 e0       	mov r3,r0
     d58:	31 f5       	stw r1,r3
     d5a:	0d 0f       	ldli r13,-16
     d5c:	d0 f0       	ldw r0,r13
     d5e:	c0 ab       	addi r0,-4
     d60:	01 e0       	mov r1,r0
     d62:	10 f0       	ldw r0,r1
     d64:	02 e0       	mov r2,r0
     d66:	20 f4       	ldbu r0,r2
     d68:	83 01       	ldli r3,24
     d6a:	30 a0       	sl r0,r3
     d6c:	81 01       	ldli r1,24
     d6e:	10 a2       	sr r0,r1
     d70:	47 0f       	ldli r7,-12
     d72:	7d f0       	ldw r13,r7
     d74:	cd a8       	addi r13,12
     d76:	7d f5       	stw r13,r7
     d78:	07 0f       	ldli r7,-16
     d7a:	0d 4c       	ldfpz_inc r13,0
     d7c:	7d f5       	stw r13,r7
     d7e:	0e f8       	rts
     d80:	07 0f       	ldli r7,-16
     d82:	7d f0       	ldw r13,r7
     d84:	fd 5f       	stfpz_dec r13,-1
     d86:	47 0f       	ldli r7,-12
     d88:	7d f0       	ldw r13,r7
     d8a:	07 0f       	ldli r7,-16
     d8c:	7d f5       	stw r13,r7
     d8e:	47 0f       	ldli r7,-12
     d90:	7d f0       	ldw r13,r7
     d92:	8d ab       	addi r13,-8
     d94:	7d f5       	stw r13,r7
     d96:	0d 0f       	ldli r13,-16
     d98:	d0 f0       	ldw r0,r13
     d9a:	c0 ab       	addi r0,-4
     d9c:	04 e0       	mov r4,r0
     d9e:	41 f5       	stw r1,r4
     da0:	0d 0f       	ldli r13,-16
     da2:	d0 f0       	ldw r0,r13
     da4:	b0 ab       	addi r0,-5
     da6:	01 e0       	mov r1,r0
     da8:	12 f7       	stb r2,r1
     daa:	0d 0f       	ldli r13,-16
     dac:	d0 f0       	ldw r0,r13
     dae:	a0 ab       	addi r0,-6
     db0:	04 e0       	mov r4,r0
     db2:	43 f7       	stb r3,r4
     db4:	47 0f       	ldli r7,-12
     db6:	7d f0       	ldw r13,r7
     db8:	8d a8       	addi r13,8
     dba:	7d f5       	stw r13,r7
     dbc:	07 0f       	ldli r7,-16
     dbe:	0d 4c       	ldfpz_inc r13,0
     dc0:	7d f5       	stw r13,r7
     dc2:	0e f8       	rts
     dc4:	02 b8       	cmpi_eq r2,0
     dc6:	11 9c       	jmpi_ct 17
     dc8:	01 b8       	cmpi_eq r1,0
     dca:	10 d0       	mov_ct r0,r1
     dcc:	0e 9c       	jmpi_ct 14
     dce:	2d e0       	mov r13,r2
     dd0:	f2 b7       	btest r2,0x1f
     dd2:	12 81       	sli_cf r2,0x1
     dd4:	fe 8f       	jmpi_cf -2
     dd6:	00 00       	ldli r0,0
     dd8:	d2 b3       	cmpu_lt r2,r13
     dda:	07 9c       	jmpi_ct 7
     ddc:	10 a1       	sli r0,0x1
     dde:	12 b4       	cmpu_gt r2,r1
     de0:	21 c3       	sub_cf r1,r2
     de2:	10 88       	addi_cf r0,1
     de4:	12 a3       	sri r2,0x1
     de6:	f9 af       	jmpi -7
     de8:	0e f8       	rts
     dea:	02 b8       	cmpi_eq r2,0
     dec:	0e 9c       	jmpi_ct 14
     dee:	01 b8       	cmpi_eq r1,0
     df0:	10 d0       	mov_ct r0,r1
     df2:	0b 9c       	jmpi_ct 11
     df4:	2d e0       	mov r13,r2
     df6:	f2 b7       	btest r2,0x1f
     df8:	12 81       	sli_cf r2,0x1
     dfa:	fe 8f       	jmpi_cf -2
     dfc:	d2 b3       	cmpu_lt r2,r13
     dfe:	05 9c       	jmpi_ct 5
     e00:	12 b4       	cmpu_gt r2,r1
     e02:	21 c3       	sub_cf r1,r2
     e04:	12 a3       	sri r2,0x1
     e06:	fb af       	jmpi -5
     e08:	10 e0       	mov r0,r1
     e0a:	0e f8       	rts
     e0c:	15 e0       	mov r5,r1
     e0e:	03 b8       	cmpi_eq r3,0
     e10:	0b 9c       	jmpi_ct 11
     e12:	04 00       	ldli r4,0
     e14:	51 e0       	mov r1,r5
     e16:	41 e1       	add r1,r4
     e18:	20 e0       	mov r0,r2
     e1a:	40 e1       	add r0,r4
     e1c:	00 f4       	ldbu r0,r0
     e1e:	10 f7       	stb r0,r1
     e20:	14 a8       	addi r4,1
     e22:	34 b0       	cmp_eq r4,r3
     e24:	f8 8f       	jmpi_cf -8
     e26:	50 e0       	mov r0,r5
     e28:	0e f8       	rts
     e2a:	10 e0       	mov r0,r1
     e2c:	03 b8       	cmpi_eq r3,0
     e2e:	07 9c       	jmpi_ct 7
     e30:	14 e0       	mov r4,r1
     e32:	13 e1       	add r3,r1
     e34:	42 f7       	stb r2,r4
     e36:	14 a8       	addi r4,1
     e38:	34 b0       	cmp_eq r4,r3
     e3a:	fd 8f       	jmpi_cf -3
     e3c:	0e f8       	rts
     e3e:	10 f3       	ldb r0,r1
     e40:	00 b8       	cmpi_eq r0,0
     e42:	08 9c       	jmpi_ct 8
     e44:	12 e0       	mov r2,r1
     e46:	12 a8       	addi r2,1
     e48:	20 f3       	ldb r0,r2
     e4a:	00 b8       	cmpi_eq r0,0
     e4c:	fd 8f       	jmpi_cf -3
     e4e:	20 e0       	mov r0,r2
     e50:	10 e3       	sub r0,r1
     e52:	0e f8       	rts
     e54:	00 fe       	nop
     e56:	ff af       	jmpi -1
     e58:	80 08       	ldli r0,-120
     e5a:	02 02       	ldli r2,32
     e5c:	02 f7       	stb r2,r0
     e5e:	90 ab       	addi r0,-7
     e60:	00 f4       	ldbu r0,r0
     e62:	20 b6       	btest r0,0x2
     e64:	06 9c       	jmpi_ct 6
     e66:	00 fe       	nop
     e68:	10 08       	ldli r0,-127
     e6a:	00 f4       	ldbu r0,r0
     e6c:	20 b6       	btest r0,0x2
     e6e:	fc 8f       	jmpi_cf -4
     e70:	10 08       	ldli r0,-127
     e72:	02 f4       	ldbu r2,r0
     e74:	00 f4       	ldbu r0,r0
     e76:	50 b6       	btest r0,0x5
     e78:	0d 8c       	jmpi_cf 13
     e7a:	22 00       	ldli r2,2
     e7c:	10 08       	ldli r0,-127
     e7e:	00 f4       	ldbu r0,r0
     e80:	30 b6       	btest r0,0x3
     e82:	0c 8c       	jmpi_cf 12
     e84:	60 08       	ldli r0,-122
     e86:	00 f2       	ldhu r0,r0
     e88:	80 08       	ldli r0,-120
     e8a:	81 02       	ldli r1,40
     e8c:	01 f7       	stb r1,r0
     e8e:	32 00       	ldli r2,3
     e90:	0d ac       	jmpi 13
     e92:	62 a3       	sri r2,0x6
     e94:	14 00       	ldli r4,1
     e96:	42 e5       	and r2,r4
     e98:	f2 af       	jmpi -14
     e9a:	60 08       	ldli r0,-122
     e9c:	03 f2       	ldhu r3,r0
     e9e:	20 a8       	addi r0,2
     ea0:	84 02       	ldli r4,40
     ea2:	04 f7       	stb r4,r0
     ea4:	02 b8       	cmpi_eq r2,0
     ea6:	02 8c       	jmpi_cf 2
     ea8:	13 f7       	stb r3,r1
     eaa:	20 e0       	mov r0,r2
     eac:	0e f8       	rts
     eae:	00 00       	ldli r0,0
     eb0:	0e f8       	rts
     eb2:	f9 5f       	stfpz_dec r9,-1
     eb4:	fe 5f       	stfpz_dec r14,-1
     eb6:	07 0f       	ldli r7,-16
     eb8:	7d f0       	ldw r13,r7
     eba:	fd 5f       	stfpz_dec r13,-1
     ebc:	47 0f       	ldli r7,-12
     ebe:	7d f0       	ldw r13,r7
     ec0:	07 0f       	ldli r7,-16
     ec2:	7d f5       	stw r13,r7
     ec4:	0d 0f       	ldli r13,-16
     ec6:	d0 f0       	ldw r0,r13
     ec8:	c0 a8       	addi r0,12
     eca:	07 f0       	ldw r7,r0
     ecc:	03 e0       	mov r3,r0
     ece:	83 a8       	addi r3,8
     ed0:	31 f0       	ldw r1,r3
     ed2:	f4 00       	ldli r4,15
     ed4:	41 e5       	and r1,r4
     ed6:	16 e0       	mov r6,r1
     ed8:	04 e0       	mov r4,r0
     eda:	44 a8       	addi r4,4
     edc:	42 f0       	ldw r2,r4
     ede:	02 b8       	cmpi_eq r2,0
     ee0:	60 9c       	jmpi_ct 96
     ee2:	35 08       	ldli r5,-125
     ee4:	09 00       	ldli r9,0
     ee6:	59 f7       	stb r9,r5
     ee8:	07 f5       	stw r7,r0
     eea:	30 f0       	ldw r0,r3
     eec:	09 0f       	ldli r9,-16
     eee:	90 e5       	and r0,r9
     ef0:	10 e6       	or r0,r1
     ef2:	30 f5       	stw r0,r3
     ef4:	42 f5       	stw r2,r4
     ef6:	33 f0       	ldw r3,r3
     ef8:	01 03       	ldli r1,48
     efa:	31 e5       	and r1,r3
     efc:	01 b8       	cmpi_eq r1,0
     efe:	47 8c       	jmpi_cf 71
     f00:	63 b6       	btest r3,0x6
     f02:	3c 9c       	jmpi_ct 60
     f04:	f3 00       	ldli r3,15
     f06:	63 e5       	and r3,r6
     f08:	33 b6       	btest r3,0x3
     f0a:	31 9c       	jmpi_ct 49
     f0c:	23 b6       	btest r3,0x2
     f0e:	28 9c       	jmpi_ct 40
     f10:	13 b6       	btest r3,0x1
     f12:	1f 9c       	jmpi_ct 31
     f14:	03 b6       	btest r3,0x0
     f16:	18 9c       	jmpi_ct 24
     f18:	31 08       	ldli r1,-125
     f1a:	10 f4       	ldbu r0,r1
     f1c:	40 a4       	bset r0,0x4
     f1e:	10 f7       	stb r0,r1
     f20:	71 e0       	mov r1,r7
     f22:	00 10       	ldhi r0,0
     f24:	00 20       	ldliu r0,0x0
     f26:	80 a1       	sli r0,0x8
     f28:	60 20       	ldliu r0,0x6
     f2a:	80 a1       	sli r0,0x8
     f2c:	20 2e       	ldliu r0,0xe2
     f2e:	00 ee       	jsr r0
     f30:	02 e0       	mov r2,r0
     f32:	42 a1       	sli r2,0x4
     f34:	44 01       	ldli r4,20
     f36:	40 a0       	sl r0,r4
     f38:	85 01       	ldli r5,24
     f3a:	50 a2       	sr r0,r5
     f3c:	51 08       	ldli r1,-123
     f3e:	10 f7       	stb r0,r1
     f40:	40 08       	ldli r0,-124
     f42:	02 f7       	stb r2,r0
     f44:	2e ac       	jmpi 46
     f46:	31 08       	ldli r1,-125
     f48:	10 f4       	ldbu r0,r1
     f4a:	00 a4       	bset r0,0x0
     f4c:	10 f7       	stb r0,r1
     f4e:	e5 af       	jmpi -27
     f50:	31 08       	ldli r1,-125
     f52:	10 f4       	ldbu r0,r1
     f54:	10 a4       	bset r0,0x1
     f56:	10 f7       	stb r0,r1
     f58:	03 b6       	btest r3,0x0
     f5a:	df 8f       	jmpi_cf -33
     f5c:	f5 af       	jmpi -11
     f5e:	31 08       	ldli r1,-125
     f60:	10 f4       	ldbu r0,r1
     f62:	20 a4       	bset r0,0x2
     f64:	10 f7       	stb r0,r1
     f66:	13 b6       	btest r3,0x1
     f68:	d6 8f       	jmpi_cf -42
     f6a:	f3 af       	jmpi -13
     f6c:	31 08       	ldli r1,-125
     f6e:	10 f4       	ldbu r0,r1
     f70:	30 a4       	bset r0,0x3
     f72:	10 f7       	stb r0,r1
     f74:	23 b6       	btest r3,0x2
     f76:	cd 8f       	jmpi_cf -51
     f78:	f3 af       	jmpi -13
     f7a:	31 08       	ldli r1,-125
     f7c:	10 f4       	ldbu r0,r1
     f7e:	50 a4       	bset r0,0x5
     f80:	10 f7       	stb r0,r1
     f82:	f3 00       	ldli r3,15
     f84:	63 e5       	and r3,r6
     f86:	33 b6       	btest r3,0x3
     f88:	c2 8f       	jmpi_cf -62
     f8a:	f1 af       	jmpi -15
     f8c:	50 f4       	ldbu r0,r5
     f8e:	08 08       	ldli r8,-128
     f90:	80 e6       	or r0,r8
     f92:	50 f7       	stb r0,r5
     f94:	01 b9       	cmpi_eq r1,16
     f96:	b5 8f       	jmpi_cf -75
     f98:	50 f4       	ldbu r0,r5
     f9a:	60 a4       	bset r0,0x6
     f9c:	50 f7       	stb r0,r5
     f9e:	b1 af       	jmpi -79
     fa0:	07 0f       	ldli r7,-16
     fa2:	0d 4c       	ldfpz_inc r13,0
     fa4:	7d f5       	stw r13,r7
     fa6:	0e 4c       	ldfpz_inc r14,0
     fa8:	09 4c       	ldfpz_inc r9,0
     faa:	0e f8       	rts
     fac:	00 00       	ldli r0,0
     fae:	0e f8       	rts
     fb0:	f9 5f       	stfpz_dec r9,-1
     fb2:	fa 5f       	stfpz_dec r10,-1
     fb4:	fb 5f       	stfpz_dec r11,-1
     fb6:	fc 5f       	stfpz_dec r12,-1
     fb8:	fe 5f       	stfpz_dec r14,-1
     fba:	07 0f       	ldli r7,-16
     fbc:	7d f0       	ldw r13,r7
     fbe:	fd 5f       	stfpz_dec r13,-1
     fc0:	47 0f       	ldli r7,-12
     fc2:	7d f0       	ldw r13,r7
     fc4:	07 0f       	ldli r7,-16
     fc6:	7d f5       	stw r13,r7
     fc8:	47 0f       	ldli r7,-12
     fca:	7d f0       	ldw r13,r7
     fcc:	cd ab       	addi r13,-4
     fce:	7d f5       	stw r13,r7
     fd0:	2c e0       	mov r12,r2
     fd2:	3b e0       	mov r11,r3
     fd4:	03 38       	cmpi_gt r3,0
     fd6:	17 8c       	jmpi_cf 23
     fd8:	09 00       	ldli r9,0
     fda:	0d 0f       	ldli r13,-16
     fdc:	da f0       	ldw r10,r13
     fde:	fa ab       	addi r10,-1
     fe0:	a1 e0       	mov r1,r10
     fe2:	02 10       	ldhi r2,0
     fe4:	02 20       	ldliu r2,0x0
     fe6:	82 a1       	sli r2,0x8
     fe8:	72 20       	ldliu r2,0x7
     fea:	82 a1       	sli r2,0x8
     fec:	c2 22       	ldliu r2,0x2c
     fee:	02 ee       	jsr r2
     ff0:	00 b8       	cmpi_eq r0,0
     ff2:	0a 8c       	jmpi_cf 10
     ff4:	90 e0       	mov r0,r9
     ff6:	c0 e1       	add r0,r12
     ff8:	a1 f4       	ldbu r1,r10
     ffa:	01 f7       	stb r1,r0
     ffc:	19 a8       	addi r9,1
     ffe:	9b b0       	cmp_eq r11,r9
    1000:	f0 8f       	jmpi_cf -16
    1002:	02 ac       	jmpi 2
    1004:	09 00       	ldli r9,0
    1006:	90 e0       	mov r0,r9
    1008:	47 0f       	ldli r7,-12
    100a:	7d f0       	ldw r13,r7
    100c:	4d a8       	addi r13,4
    100e:	7d f5       	stw r13,r7
    1010:	07 0f       	ldli r7,-16
    1012:	0d 4c       	ldfpz_inc r13,0
    1014:	7d f5       	stw r13,r7
    1016:	0e 4c       	ldfpz_inc r14,0
    1018:	0c 4c       	ldfpz_inc r12,0
    101a:	0b 4c       	ldfpz_inc r11,0
    101c:	0a 4c       	ldfpz_inc r10,0
    101e:	09 4c       	ldfpz_inc r9,0
    1020:	0e f8       	rts
    1022:	f9 5f       	stfpz_dec r9,-1
    1024:	fa 5f       	stfpz_dec r10,-1
    1026:	fb 5f       	stfpz_dec r11,-1
    1028:	fc 5f       	stfpz_dec r12,-1
    102a:	fe 5f       	stfpz_dec r14,-1
    102c:	07 0f       	ldli r7,-16
    102e:	7d f0       	ldw r13,r7
    1030:	fd 5f       	stfpz_dec r13,-1
    1032:	47 0f       	ldli r7,-12
    1034:	7d f0       	ldw r13,r7
    1036:	07 0f       	ldli r7,-16
    1038:	7d f5       	stw r13,r7
    103a:	47 0f       	ldli r7,-12
    103c:	7d f0       	ldw r13,r7
    103e:	cd ab       	addi r13,-4
    1040:	7d f5       	stw r13,r7
    1042:	2b e0       	mov r11,r2
    1044:	3c e0       	mov r12,r3
    1046:	03 38       	cmpi_gt r3,0
    1048:	1f 8c       	jmpi_cf 31
    104a:	0a 00       	ldli r10,0
    104c:	0d 0f       	ldli r13,-16
    104e:	d9 f0       	ldw r9,r13
    1050:	f9 ab       	addi r9,-1
    1052:	91 e0       	mov r1,r9
    1054:	02 10       	ldhi r2,0
    1056:	02 20       	ldliu r2,0x0
    1058:	82 a1       	sli r2,0x8
    105a:	72 20       	ldliu r2,0x7
    105c:	82 a1       	sli r2,0x8
    105e:	c2 22       	ldliu r2,0x2c
    1060:	02 ee       	jsr r2
    1062:	00 b8       	cmpi_eq r0,0
    1064:	0d 8c       	jmpi_cf 13
    1066:	91 f4       	ldbu r1,r9
    1068:	90 f3       	ldb r0,r9
    106a:	d0 b8       	cmpi_eq r0,13
    106c:	07 9c       	jmpi_ct 7
    106e:	a0 b8       	cmpi_eq r0,10
    1070:	07 9c       	jmpi_ct 7
    1072:	b0 e0       	mov r0,r11
    1074:	a0 e1       	add r0,r10
    1076:	01 f7       	stb r1,r0
    1078:	1a a8       	addi r10,1
    107a:	ca b1       	cmp_lt r10,r12
    107c:	eb 9f       	jmpi_ct -21
    107e:	ab e1       	add r11,r10
    1080:	02 00       	ldli r2,0
    1082:	b2 f7       	stb r2,r11
    1084:	02 ac       	jmpi 2
    1086:	0a 00       	ldli r10,0
    1088:	a0 e0       	mov r0,r10
    108a:	47 0f       	ldli r7,-12
    108c:	7d f0       	ldw r13,r7
    108e:	4d a8       	addi r13,4
    1090:	7d f5       	stw r13,r7
    1092:	07 0f       	ldli r7,-16
    1094:	0d 4c       	ldfpz_inc r13,0
    1096:	7d f5       	stw r13,r7
    1098:	0e 4c       	ldfpz_inc r14,0
    109a:	0c 4c       	ldfpz_inc r12,0
    109c:	0b 4c       	ldfpz_inc r11,0
    109e:	0a 4c       	ldfpz_inc r10,0
    10a0:	09 4c       	ldfpz_inc r9,0
    10a2:	0e f8       	rts
    10a4:	03 38       	cmpi_gt r3,0
    10a6:	27 8c       	jmpi_cf 39
    10a8:	04 00       	ldli r4,0
    10aa:	40 e0       	mov r0,r4
    10ac:	20 e1       	add r0,r2
    10ae:	01 f4       	ldbu r1,r0
    10b0:	10 08       	ldli r0,-127
    10b2:	00 f4       	ldbu r0,r0
    10b4:	10 b6       	btest r0,0x1
    10b6:	06 9c       	jmpi_ct 6
    10b8:	00 fe       	nop
    10ba:	10 08       	ldli r0,-127
    10bc:	00 f4       	ldbu r0,r0
    10be:	10 b6       	btest r0,0x1
    10c0:	fc 8f       	jmpi_cf -4
    10c2:	10 e0       	mov r0,r1
    10c4:	85 01       	ldli r5,24
    10c6:	50 a0       	sl r0,r5
    10c8:	50 e8       	sra r0,r5
    10ca:	61 08       	ldli r1,-122
    10cc:	10 f6       	sth r0,r1
    10ce:	80 08       	ldli r0,-120
    10d0:	81 01       	ldli r1,24
    10d2:	01 f7       	stb r1,r0
    10d4:	90 ab       	addi r0,-7
    10d6:	00 f4       	ldbu r0,r0
    10d8:	10 b6       	btest r0,0x1
    10da:	06 9c       	jmpi_ct 6
    10dc:	00 fe       	nop
    10de:	10 08       	ldli r0,-127
    10e0:	00 f4       	ldbu r0,r0
    10e2:	10 b6       	btest r0,0x1
    10e4:	fc 8f       	jmpi_cf -4
    10e6:	80 08       	ldli r0,-120
    10e8:	05 00       	ldli r5,0
    10ea:	05 f7       	stb r5,r0
    10ec:	14 a8       	addi r4,1
    10ee:	43 b0       	cmp_eq r3,r4
    10f0:	dd 8f       	jmpi_cf -35
    10f2:	02 ac       	jmpi 2
    10f4:	03 00       	ldli r3,0
    10f6:	30 e0       	mov r0,r3
    10f8:	0e f8       	rts

Disassembly of section .rodata:

00000000 <.rodata>:
   0:	0a 0d       	ldli r10,-48
   2:	48 61       	ldfpw r8,20
   4:	6c 6c       	ldfpz r12,6
   6:	6f 20       	ldliu r15,0x6
   8:	57 65       	ldfpx r7,21
   a:	6c 74       	stfpx r12,6
   c:	21 0a       	ldli r1,-94
   e:	0d 00       	ldli r13,0
  10:	00 00       	ldli r0,0
  12:	00 00       	ldli r0,0
  14:	00 00       	ldli r0,0
  16:	00 00       	ldli r0,0
  18:	00 00       	ldli r0,0
  1a:	00 00       	ldli r0,0
  1c:	00 00       	ldli r0,0
  1e:	00 00       	ldli r0,0
  20:	20 50       	stfpw_inc r0,2
  22:	75 73       	stfpw r5,-9
  24:	68 62       	ldfpw r8,-26
  26:	75 74       	stfpx r5,7
  28:	74 6f       	ldfpz r4,-9
  2a:	6e 20       	ldliu r14,0x6
  2c:	31 20       	ldliu r1,0x3
  2e:	00 00       	ldli r0,0
  30:	00 00       	ldli r0,0
  32:	00 00       	ldli r0,0
  34:	00 00       	ldli r0,0
  36:	00 00       	ldli r0,0
  38:	00 00       	ldli r0,0
  3a:	00 00       	ldli r0,0
  3c:	00 00       	ldli r0,0
  3e:	00 00       	ldli r0,0
  40:	20 50       	stfpw_inc r0,2
  42:	75 73       	stfpw r5,-9
  44:	68 62       	ldfpw r8,-26
  46:	75 74       	stfpx r5,7
  48:	74 6f       	ldfpz r4,-9
  4a:	6e 20       	ldliu r14,0x6
  4c:	32 20       	ldliu r2,0x3
  4e:	00 00       	ldli r0,0
  50:	00 00       	ldli r0,0
  52:	00 00       	ldli r0,0
  54:	00 00       	ldli r0,0
  56:	00 00       	ldli r0,0
  58:	00 00       	ldli r0,0
  5a:	00 00       	ldli r0,0
  5c:	00 00       	ldli r0,0
  5e:	00 00       	ldli r0,0
  60:	20 50       	stfpw_inc r0,2
  62:	75 73       	stfpw r5,-9
  64:	68 62       	ldfpw r8,-26
  66:	75 74       	stfpx r5,7
  68:	74 6f       	ldfpz r4,-9
  6a:	6e 20       	ldliu r14,0x6
  6c:	33 20       	ldliu r3,0x3
  6e:	00 00       	ldli r0,0
  70:	00 00       	ldli r0,0
  72:	00 00       	ldli r0,0
  74:	00 00       	ldli r0,0
  76:	00 00       	ldli r0,0
  78:	00 00       	ldli r0,0
  7a:	00 00       	ldli r0,0
  7c:	00 00       	ldli r0,0
  7e:	00 00       	ldli r0,0
  80:	0d 00       	ldli r13,0
  82:	00 00       	ldli r0,0
  84:	00 00       	ldli r0,0
  86:	00 00       	ldli r0,0
  88:	00 00       	ldli r0,0
  8a:	00 00       	ldli r0,0
  8c:	00 00       	ldli r0,0
  8e:	00 00       	ldli r0,0
  90:	00 00       	ldli r0,0
  92:	00 00       	ldli r0,0
  94:	00 00       	ldli r0,0
  96:	00 00       	ldli r0,0
  98:	00 00       	ldli r0,0
  9a:	00 00       	ldli r0,0
  9c:	00 00       	ldli r0,0
  9e:	00 00       	ldli r0,0

Disassembly of section .bss:

000000a0 <.bss>:
  a0:	00 00       	ldli r0,0
  a2:	00 00       	ldli r0,0
  a4:	00 00       	ldli r0,0
  a6:	00 00       	ldli r0,0
  a8:	00 00       	ldli r0,0
  aa:	00 00       	ldli r0,0
