
main:     file format elf32-scarts_32
main
architecture: scarts_32, flags 0x00000102:
EXEC_P, D_PAGED
start address 0x00000000

Program Header:
    LOAD off    0x00000078 vaddr 0x00000000 paddr 0x00000000 align 2**3
         filesz 0x000000a0 memsz 0x000000b4 flags rw-
    LOAD off    0x00000118 vaddr 0x00000000 paddr 0x80000000 align 2**0
         filesz 0x000011c2 memsz 0x000011c2 flags r-x

Sections:
Idx Name          Size      VMA       LMA       File off  Algn  Flags
  0 .text         000011c2  00000000  80000000  00000118  2**0  CONTENTS, ALLOC, LOAD, READONLY, CODE
  1 .rodata       000000a0  00000000  00000000  00000078  2**0  CONTENTS, ALLOC, LOAD, READONLY, DATA
  2 .bss          00000014  000000a0  000000a0  00000118  2**3  ALLOC
SYMBOL TABLE:
no symbols


Contents of section .text:
 0000 05100520 85a10520 85a1052a 06100620  ... ... ...*... 
 0010 86a10620 86a1462b 65b0069c 070057f5  ... ..F+e.....W.
 0020 45a865b1 fd9f0010 00200110 01200210  E.e...... ... ..
 0030 02200310 03200410 04200510 05200610  . ... ... ... ..
 0040 06200710 07200810 08200910 09200a10  . ... ... ... ..
 0050 0a200b10 0b200c10 0c200d10 0d200e10  . ... ... ... ..
 0060 0e200f10 0f20870e 0d100d20 7df5c70e  . ... ..... }...
 0070 0d100d20 7df5070f 0d100d20 7df5470f  ... }...... }.G.
 0080 0d100d20 7df50d10 2d208da1 0d208da1  ... }...- ... ..
 0090 0d20070f 7df5470f 7df50d10 0d208da1  . ..}.G.}.... ..
 00a0 0d208da1 cd250dee 01e00d10 0d208da1  . ...%....... ..
 00b0 7d208da1 ed280dee f95ffa5f fb5ffc5f  } ...(..._._._._
 00c0 fe5f070f 7df0fd5f 470f7df0 070f7df5  ._..}.._G.}...}.
 00d0 470f7df0 4605f61f 6de17df5 0d0fdbf0  G.}.F...m.}.....
 00e0 400d0be1 09100920 89a17920 89a1a926  @...... ..y ...&
 00f0 b1e00210 022082a1 022082a1 02200301  ..... ... ... ..
 0100 09ee0d0f d0f040aa 020002f5 40a802f5  ......@.....@...
 0110 40a802f5 40a802f5 0d0fd1f0 400b01e1  @...@.......@...
 0120 02100220 82a10220 82a10222 f30009ee  ... ... ..."....
 0130 0a100a20 8aa17a20 8aa19a27 410b0d0f  ... ..z ...'A...
 0140 ddf0d1e1 f1a80200 13010aee 0d0fd1f0  ................
 0150 420921e1 02100220 82a10220 82a10224  B.!.... ... ...$
 0160 f30009ee 41090d0f ddf0d1e1 f1a80200  ....A...........
 0170 13010aee 0d0fd1f0 4307f31f 31e10210  ........C...1...
 0180 022082a1 022082a1 0226f300 09ee4107  . ... ...&....A.
 0190 f11f0d0f ddf0d1e1 f1a80200 13010aee  ................
 01a0 0d0fdcf0 4405f41f 4ce10010 002080a1  ....D...L.... ..
 01b0 002080a1 002802f4 c1e0c2f7 1ca810a8  . ...(..........
 01c0 00f4c0f7 fcab21a8 0200e301 0aee2410  ......!.......$.
 01d0 a42f84a1 042f84a1 0428d47b 00101020  ./.../...(.{... 
 01e0 80a1202c 80a10020 e07b0d0f d0f0c0ab  .. ,... .{......
 01f0 01f0030c 31e57400 41e651a4 61a601f5  ....1.t.A.Q.a...
 0200 4d0fd0f0 40ab4d0f d0f52210 a22f82a1  M...@.M..."../..
 0210 022f82a1 0228027c 40a80410 142084a1  ./...(.|@.... ..
 0220 242c84a1 042004f5 40a801f5 00100020  $,... ..@...... 
 0230 80a17020 80a1d02b 00ee4d0f d0f0c0a8  ..p ...+..M.....
 0240 4d0fd0f5 01100120 81a10120 81a1812a  M...... ... ...*
 0250 020ee21f 83000010 002080a1 202080a1  ......... ..  ..
 0260 e02a00ee 01100120 81a10120 81a1812a  .*..... ... ...*
 0270 02002304 00100020 80a16020 80a10026  ..#.... ..` ...&
 0280 00eeb1e0 02100220 82a17220 82a13228  ....... ..r ..2(
 0290 02ee0100 b2e003e0 04100420 84a18420  ........... ... 
 02a0 84a1642b 04ee0010 002080a1 202080a1  ..d+..... ..  ..
 02b0 502020fd 610e10f2 20a610f6 d1ab10f4  P  .a... .......
 02c0 040840e6 10f72110 a12f81a1 012f81a1  ..@...!../.../..
 02d0 01280200 00100020 80a12020 80a1402a  .(..... ..  ..@*
 02e0 00ee0110 012081a1 012081a1 012a0206  ..... ... ...*..
 02f0 e21f0010 002080a1 202080a1 902800ee  ..... ..  ...(..
 0300 00100020 80a12020 80a12029 00ee0900  ... ..  .. )....
 0310 0b100b20 8ba12b20 8ba18b26 01100120  ... ..+ ...&... 
 0320 81a12120 81a1a125 01ee0ae0 09b0079c  ..! ...%........
 0330 20b6519c 1ab6369c 0ab61b9c 090091e0   .Q...6.........
 0340 0bee19a8 29b9fc8f c1e00210 022082a1  ....)........ ..
 0350 722082a1 322802ee 0100c2e0 03e00410  r ..2(..........
 0360 042084a1 842084a1 642b04ee a9e0d7af  . ... ..d+......
 0370 0d0fd1f0 400b01e1 02100220 82a17220  ....@...... ..r 
 0380 82a13228 02ee0100 0d0fd2f0 430b32e1  ..2(........C.2.
 0390 03e00410 042084a1 842084a1 642b04ee  ..... ... ..d+..
 03a0 ceaf0d0f d1f04009 01e10210 022082a1  ......@...... ..
 03b0 722082a1 322802ee 01000d0f d2f04309  r ..2(........C.
 03c0 32e103e0 04100420 84a18420 84a1642b  2...... ... ..d+
 03d0 04eeb3af 0d0fd1f0 4207f21f 21e10310  ........B...!...
 03e0 032083a1 732083a1 332803ee 01000d0f  . ..s ..3(......
 03f0 d2f04407 f41f42e1 03e00410 042084a1  ..D...B...... ..
 0400 842084a1 642b04ee 96aff75f fd5fff5f  . ..d+....._._._
 0410 870f7df4 fd5f370e 7df47da4 7df7f05f  ..}.._7.}.}.}.._
 0420 f15ff25f f35ff45f f55ff65f f75ff85f  ._._._._._._._._
 0430 fe5f870e 7df0fd5f c70e7df0 fd5f070f  ._..}.._..}.._..
 0440 7df0fd5f 470f7df0 070f7df5 01104120  }.._G.}...}...A 
 0450 81a10120 81a10120 00100020 80a12020  ... ... ... ..  
 0460 80a1c027 00ee0110 012081a1 012081a1  ...'..... ... ..
 0470 012a0010 002080a1 202080a1 c02800ee  .*... ..  ...(..
 0480 070f0d4c 7df5c70e 0d4c7df5 870e0d4c  ...L}....L}....L
 0490 7df50e4c 084c074c 064c054c 044c034c  }..L.L.L.L.L.L.L
 04a0 024c014c 004c870f 0d4c7df7 0f4c0d4c  .L.L.L...L}..L.L
 04b0 074c0ff9 4208e21f 21f001ec 130031e5  .L..B...!.....1.
 04c0 20f010b6 118420f0 20b62184 10e00ef8   ..... . .!.....
 04d0 4008e01f 02f00300 32e90010 302080a1  @.......2...0 ..
 04e0 f02f80a1 f02f02e5 100010a0 02e502b8  ./.../..........
 04f0 029c1300 30e00ef8 12e05001 02a04008  ....0.....P...@.
 0500 e01f02f5 51a10001 01a28008 e01f01f5  ....Q...........
 0510 0ef812f5 0ef80ef8 11f021a8 10f400a4  ..........!.....
 0520 10f70ef8 3006e01f 01f011a6 01f501f0  ....0...........
 0530 01a401f5 0ef83006 e01f01f0 01a601f5  ......0.........
 0540 01f011a4 01f50ef8 4006e01f 01f58001  ........@.......
 0550 02a002a2 8006e01f 02f50ef8 070f7df0  ..............}.
 0560 fd5f470f 7df0070f 7df5470f 7df04dab  ._G.}...}.G.}.M.
 0570 7df50d0f d0f0c0ab 04e041f5 0d0fd0f0  }.........A.....
 0580 80ab01e0 12f50d0f d0f070ab 02e023f7  ..........p...#.
 0590 0d0fd0f0 c0ab04e0 41f00d0f d0f080ab  ........A.......
 05a0 02e020f0 14e040f5 0d0fd0f0 c0ab01e0  .. ...@.........
 05b0 10f001e0 41a80d0f d0f070ab 02e020f4  ....A.....p... .
 05c0 14e040f7 470f7df0 cda87df5 070f0d4c  ..@.G.}...}....L
 05d0 7df50ef8 070f7df0 fd5f470f 7df0070f  }.....}.._G.}...
 05e0 7df5470f 7df0cdab 7df50d0f d0f0c0ab  }.G.}...}.......
 05f0 02e021f5 470f7df0 4da87df5 070f0d4c  ..!.G.}.M.}....L
 0600 7df50ef8 070f7df0 fd5f470f 7df0070f  }.....}.._G.}...
 0610 7df5470f 7df04dab 7df50d0f d0f080ab  }.G.}.M.}.......
 0620 03e031f5 0d0fd0f0 60ab01e0 12f60d0f  ..1.....`.......
 0630 d0f080ab 02e020f0 03e030f0 01e041a8  ...... ...0...A.
 0640 0d0fd0f0 c0ab02e0 21f50d0f d0f0c0ab  ........!.......
 0650 03e031f0 0d0fd0f0 60ab02e0 20f213e0  ..1.....`... ...
 0660 30f6470f 7df0cda8 7df5070f 0d4c7df5  0.G.}...}....L}.
 0670 0ef8070f 7df0fd5f 470f7df0 070f7df5  ....}.._G.}...}.
 0680 470f7df0 4dab7df5 0d0fd0f0 80ab04e0  G.}.M.}.........
 0690 41f50d0f d0f070ab 01e012f7 0d0fd0f0  A.....p.........
 06a0 60ab02e0 23f70d0f d0f080ab 04e040f0  `...#.........@.
 06b0 01e010f0 01e061a8 0d0fd0f0 c0ab02e0  ......a.........
 06c0 21f50d0f d0f070ab 04e040f4 f10310e5  !.....p...@.....
 06d0 60a401e0 0d0fd0f0 c0ab02e0 20f004e0  `........... ...
 06e0 41f70d0f d0f080ab 01e010f0 02e020f0  A............. .
 06f0 01e071a8 0d0fd0f0 c0ab04e0 41f50d0f  ..q.........A...
 0700 d0f0c0ab 02e021f0 0d0fd0f0 60ab04e0  ......!.....`...
 0710 40f412e0 20f7470f 7df0cda8 7df5070f  @... .G.}...}...
 0720 0d4c7df5 0ef8fe5f 070f7df0 fd5f470f  .L}...._..}.._G.
 0730 7df0070f 7df5470f 7df00dab 7df50d0f  }...}.G.}...}...
 0740 d0f080ab 04e041f5 0d0fd0f0 70ab01e0  ......A.....p...
 0750 12f70d0f d0f060ab 02e023f7 0d0fd1f0  ......`...#.....
 0760 c1ab0000 14e040f5 0d0fd1f0 c1ab0000  ......@.........
 0770 12e020f5 51ac0d0f d0f0c0ab 04e040f0  .. .Q.........@.
 0780 01e00d0f d0f070ab 02e020f4 10e104e0  ......p... .....
 0790 0d0fd0f0 60ab01e0 10f48201 20a08101  ....`....... ...
 07a0 10a2a200 03100320 83a17320 83a19325  ....... ..s ...%
 07b0 01e003ee 03e00d0f d0f080ab 02e020f0  .............. .
 07c0 01e042e0 00100020 80a13020 80a19023  ..B.... ..0 ...#
 07d0 00ee0d0f d4f064ab 0d0fd0f0 60ab01e0  ......d.....`...
 07e0 10f48201 20a08101 10a2a200 03100320  .... .......... 
 07f0 83a17320 83a16324 01e003ee 42e020f7  ..s ..c$....B. .
 0800 0d0fd1f0 c1ab0d0f d0f0c0ab 04e040f0  ..............@.
 0810 10a812e0 20f50d0f d0f080ab 04e040f0  .... .........@.
 0820 40a801e0 10f48201 20a08401 40a23d00  @....... ...@.=.
 0830 d0b4129c 0d0fd0f0 80ab01e0 10f040a8  ..............@.
 0840 02e020f4 04e08101 14a0c47b c26b8401  .. ........{.k..
 0850 42a2c27b 03ac3000 c07b0d0f d0f0c0ab  B..{..0..{......
 0860 01e010f0 c26b02b2 879f470f 7df00601  .....k....G.}...
 0870 6de17df5 070f0d4c 7df50e4c 0ef8fe5f  m.}....L}..L..._
 0880 070f7df0 fd5f470f 7df0070f 7df5470f  ..}.._G.}...}.G.
 0890 7df00dab 7df50d0f d0f080ab 04e041f5  }...}.........A.
 08a0 0d0fd0f0 70ab01e0 12f70d0f d0f040ab  ....p.........@.
 08b0 02e023f6 0d0fd1f0 c1ab0000 14e040f5  ..#...........@.
 08c0 0d0fd1f0 c1ab0000 12e020f5 51ac0d0f  .......... .Q...
 08d0 d0f0c0ab 04e040f0 01e00d0f d0f070ab  ......@.......p.
 08e0 02e020f4 10e104e0 0d0fd0f0 40ab01e0  .. .........@...
 08f0 10f20201 20a00101 10a2a200 03100320  .... .......... 
 0900 83a17320 83a19325 01e003ee 03e00d0f  ..s ...%........
 0910 d0f080ab 02e020f0 01e042e0 00100020  ...... ...B.... 
 0920 80a13020 80a19023 00ee0d0f d4f044ab  ..0 ...#......D.
 0930 0d0fd0f0 40ab01e0 10f20201 20a00101  ....@....... ...
 0940 10a2a200 03100320 83a17320 83a16324  ....... ..s ..c$
 0950 01e003ee 42e020f6 0d0fd1f0 c1ab0d0f  ....B. .........
 0960 d0f0c0ab 04e040f0 10a812e0 20f50d0f  ......@..... ...
 0970 d0f080ab 04e040f0 40a801e0 10f48201  ......@.@.......
 0980 20a08401 40a25d00 d0b4129c 0d0fd0f0   ...@.].........
 0990 80ab01e0 10f040a8 02e020f4 04e08101  ......@... .....
 09a0 14a0c47b c26b8401 42a2c27b 03ac5000  ...{.k..B..{..P.
 09b0 c07b0d0f d0f0c0ab 01e010f0 c26b02b2  .{...........k..
 09c0 879f470f 7df00601 6de17df5 070f0d4c  ..G.}...m.}....L
 09d0 7df50e4c 0ef8fe5f 070f7df0 fd5f470f  }..L..._..}.._G.
 09e0 7df0070f 7df5470f 7df0c60e 6de17df5  }...}.G.}...m.}.
 09f0 0d0fd0f0 80ab04e0 41f50d0f d0f070ab  ........A.....p.
 0a00 01e012f7 0d0fd0f0 00ab02e0 23f50d0f  ............#...
 0a10 d1f0c1ab 000014e0 40f50d0f d1f0c1ab  ........@.......
 0a20 000012e0 20f549ac 0d0fd0f0 c0ab04e0  .... .I.........
 0a30 40f001e0 0d0fd0f0 70ab02e0 20f410e1  @.......p... ...
 0a40 04e00d0f d0f000ab 01e010f0 a2000310  ................
 0a50 032083a1 732083a1 932501e0 03ee03e0  . ..s ...%......
 0a60 0d0fd0f0 80ab02e0 20f001e0 42e00010  ........ ...B...
 0a70 002080a1 302080a1 902300ee 0d0fd4f0  . ..0 ...#......
 0a80 04ab0d0f d0f000ab 01e010f0 a2000310  ................
 0a90 032083a1 732083a1 632401e0 03ee42e0  . ..s ..c$....B.
 0aa0 20f50d0f d1f0c1ab 0d0fd0f0 c0ab04e0   ...............
 0ab0 40f010a8 12e020f5 0d0fd0f0 80ab04e0  @..... .........
 0ac0 40f040a8 01e010f4 820120a0 840140a2  @.@....... ...@.
 0ad0 ad00d0b4 129c0d0f d0f080ab 01e010f0  ................
 0ae0 40a802e0 20f404e0 810114a0 b47bb26b  @... ........{.k
 0af0 840142a2 b27b03ac a000b07b 0d0fd0f0  ..B..{.....{....
 0b00 c0ab01e0 10f0b26b 02b28f9f 470f7df0  .......k....G.}.
 0b10 46016de1 7df5070f 0d4c7df5 0e4c0ef8  F.m.}....L}..L..
 0b20 fe5f070f 7df0fd5f 470f7df0 070f7df5  ._..}.._G.}...}.
 0b30 470f7df0 8dab7df5 0d0fd0f0 c0ab04e0  G.}...}.........
 0b40 41f50d0f d0f0b0ab 01e012f7 0d0fd0f0  A...............
 0b50 a0ab02e0 23f70d0f d0f0a0ab 04e040f4  ....#.........@.
 0b60 f10010e5 03e00d0f d0f0c0ab 02e021f0  ..............!.
 0b70 0d0fd0f0 b0ab04e0 40f402e0 00100020  ........@...... 
 0b80 80a13020 80a19023 00ee0d0f d0f0b0ab  ..0 ...#........
 0b90 01e010f4 10a802e0 0d0fd0f0 a0ab04e0  ................
 0ba0 40f48101 10a08401 40a240a3 03e00d0f  @.......@.@.....
 0bb0 d0f0c0ab 01e010f0 01e00010 002080a1  ............. ..
 0bc0 302080a1 902300ee 470f7df0 8da87df5  0 ...#..G.}...}.
 0bd0 070f0d4c 7df50e4c 0ef8fe5f 070f7df0  ...L}..L..._..}.
 0be0 fd5f470f 7df0070f 7df5470f 7df04dab  ._G.}...}.G.}.M.
 0bf0 7df50d0f d0f080ab 04e041f5 0d0fd0f0  }.........A.....
 0c00 70ab01e0 12f70d0f d0f040ab 02e023f6  p.........@...#.
 0c10 0d0fd1f0 c1ab0000 13e030f5 0d0fd1f0  ..........0.....
 0c20 c1ab0000 14e040f5 3cac0d0f d0f0c0ab  ......@.<.......
 0c30 01e010f0 01e00d0f d0f070ab 02e020f4  ..........p... .
 0c40 10e102e0 0d0fd0f0 40ab03e0 30f201e0  ........@...0...
 0c50 040141a0 000101a2 0d0fd0f0 c0ab03e0  ..A.............
 0c60 30f020a1 14e004e8 40e0f100 10e503e0  0. .....@.......
 0c70 0d0fd0f0 80ab04e0 40f001e0 00100020  ........@...... 
 0c80 80a13020 80a19023 00ee0d0f d1f0c1ab  ..0 ...#........
 0c90 0d0fd0f0 c0ab02e0 20f010a8 13e030f5  ........ .....0.
 0ca0 0d0fd0f0 c0ab04e0 40f03038 bf8f470f  ........@.08..G.
 0cb0 7df0cda8 7df5070f 0d4c7df5 0e4c0ef8  }...}....L}..L..
 0cc0 fe5f070f 7df0fd5f 470f7df0 070f7df5  ._..}.._G.}...}.
 0cd0 470f7df0 0dab7df5 0d0fd0f0 80ab04e0  G.}...}.........
 0ce0 41f50d0f d0f070ab 01e012f7 0d0fd0f0  A.....p.........
 0cf0 00ab02e0 23f50d0f d1f0c1ab 000013e0  ....#...........
 0d00 30f50d0f d1f0c1ab 000014e0 40f536ac  0...........@.6.
 0d10 0d0fd0f0 c0ab01e0 10f001e0 0d0fd0f0  ................
 0d20 70ab02e0 20f410e1 02e00d0f d0f0c0ab  p... ...........
 0d30 03e030f0 01e021a1 0d0fd0f0 00ab04e0  ..0...!.........
 0d40 40f010a2 f10010e5 03e00d0f d0f080ab  @...............
 0d50 04e040f0 01e00010 002080a1 302080a1  ..@...... ..0 ..
 0d60 902300ee 0d0fd1f0 c1ab0d0f d0f0c0ab  .#..............
 0d70 02e020f0 10a813e0 30f50d0f d0f0c0ab  .. .....0.......
 0d80 04e040f0 7038c58f 470f7df0 06016de1  ..@.p8..G.}...m.
 0d90 7df5070f 0d4c7df5 0e4c0ef8 070f7df0  }....L}..L....}.
 0da0 fd5f470f 7df0070f 7df5470f 7df04dab  ._G.}...}.G.}.M.
 0db0 7df50d0f d0f080ab 03e031f5 0d0fd0f0  }.........1.....
 0dc0 70ab01e0 12f70d0f d0f080ab 02e020f0  p............. .
 0dd0 03e030f0 01e061a8 0d0fd0f0 c0ab02e0  ..0...a.........
 0de0 21f50d0f d0f070ab 03e030f4 f10310e5  !.....p...0.....
 0df0 01e0000c 10e601e0 0d0fd0f0 c0ab02e0  ................
 0e00 20f003e0 31f70d0f d0f080ab 01e010f0   ...1...........
 0e10 02e020f0 01e071a8 0d0fd0f0 c0ab03e0  .. ...q.........
 0e20 31f50d0f d0f0c0ab 01e010f0 02e020f4  1............. .
 0e30 830130a0 810110a2 470f7df0 cda87df5  ..0.....G.}...}.
 0e40 070f0d4c 7df50ef8 070f7df0 fd5f470f  ...L}.....}.._G.
 0e50 7df0070f 7df5470f 7df08dab 7df50d0f  }...}.G.}...}...
 0e60 d0f0c0ab 04e041f5 0d0fd0f0 b0ab01e0  ......A.........
 0e70 12f70d0f d0f0a0ab 04e043f7 470f7df0  ..........C.G.}.
 0e80 8da87df5 070f0d4c 7df50ef8 02b8119c  ..}....L}.......
 0e90 01b810d0 0e9c2de0 f2b71281 fe8f0000  ......-.........
 0ea0 d2b3079c 10a112b4 21c31088 12a3f9af  ........!.......
 0eb0 0ef802b8 0e9c01b8 10d00b9c 2de0f2b7  ............-...
 0ec0 1281fe8f d2b3059c 12b421c3 12a3fbaf  ..........!.....
 0ed0 10e00ef8 15e003b8 0b9c0400 51e041e1  ............Q.A.
 0ee0 20e040e1 00f410f7 14a834b0 f88f50e0   .@.......4...P.
 0ef0 0ef810e0 03b8079c 14e013e1 42f714a8  ............B...
 0f00 34b0fd8f 0ef810f3 00b8089c 12e012a8  4...............
 0f10 20f300b8 fd8f20e0 10e30ef8 00feffaf   ..... .........
 0f20 80080202 02f790ab 00f420b6 069c00fe  .......... .....
 0f30 100800f4 20b6fc8f 100802f4 00f450b6  .... .........P.
 0f40 0d8c2200 100800f4 30b60c8c 600800f2  ..".....0...`...
 0f50 80088102 01f73200 0dac62a3 140042e5  ......2...b...B.
 0f60 f2af6008 03f220a8 840204f7 02b8028c  ..`... .........
 0f70 13f720e0 0ef80000 0ef8f95f fe5f070f  .. ........_._..
 0f80 7df0fd5f 470f7df0 070f7df5 0d0fd0f0  }.._G.}...}.....
 0f90 c0a807f0 03e083a8 31f0f400 41e516e0  ........1...A...
 0fa0 04e044a8 42f002b8 609c3508 090059f7  ..D.B...`.5...Y.
 0fb0 07f530f0 090f90e5 10e630f5 42f533f0  ..0.......0.B.3.
 0fc0 010331e5 01b8478c 63b63c9c f30063e5  ..1...G.c.<...c.
 0fd0 33b6319c 23b6289c 13b61f9c 03b6189c  3.1.#.(.........
 0fe0 310810f4 40a410f7 71e00010 002080a1  1...@...q.... ..
 0ff0 702080a1 602400ee 02e042a1 440140a0  p ..`$....B.D.@.
 1000 850150a2 510810f7 400802f7 2eac3108  ..P.Q...@.....1.
 1010 10f400a4 10f7e5af 310810f4 10a410f7  ........1.......
 1020 03b6df8f f5af3108 10f420a4 10f713b6  ......1... .....
 1030 d68ff3af 310810f4 30a410f7 23b6cd8f  ....1...0...#...
 1040 f3af3108 10f450a4 10f7f300 63e533b6  ..1...P.....c.3.
 1050 c28ff1af 50f40808 80e650f7 01b9b58f  ....P.....P.....
 1060 50f460a4 50f7b1af 070f0d4c 7df50e4c  P.`.P......L}..L
 1070 094c0ef8 00000ef8 f95ffa5f fb5ffc5f  .L......._._._._
 1080 fe5f070f 7df0fd5f 470f7df0 070f7df5  ._..}.._G.}...}.
 1090 470f7df0 cdab7df5 2ce03be0 0338178c  G.}...}.,.;..8..
 10a0 09000d0f daf0faab a1e00210 022082a1  ............. ..
 10b0 722082a1 022902ee 00b80a8c 90e0c0e1  r ...)..........
 10c0 a1f401f7 19a89bb0 f08f02ac 090090e0  ................
 10d0 470f7df0 4da87df5 070f0d4c 7df50e4c  G.}.M.}....L}..L
 10e0 0c4c0b4c 0a4c094c 0ef8f95f fa5ffb5f  .L.L.L.L..._._._
 10f0 fc5ffe5f 070f7df0 fd5f470f 7df0070f  ._._..}.._G.}...
 1100 7df5470f 7df0cdab 7df52be0 3ce00338  }.G.}...}.+.<..8
 1110 1f8c0a00 0d0fd9f0 f9ab91e0 02100220  ............... 
 1120 82a17220 82a10229 02ee00b8 0d8c91f4  ..r ...)........
 1130 90f3d0b8 079ca0b8 079cb0e0 a0e101f7  ................
 1140 1aa8cab1 eb9fabe1 0200b2f7 02ac0a00  ................
 1150 a0e0470f 7df04da8 7df5070f 0d4c7df5  ..G.}.M.}....L}.
 1160 0e4c0c4c 0b4c0a4c 094c0ef8 0338278c  .L.L.L.L.L...8'.
 1170 040040e0 20e101f4 100800f4 10b6069c  ..@. ...........
 1180 00fe1008 00f410b6 fc8f10e0 850150a0  ..............P.
 1190 50e86108 10f68008 810101f7 90ab00f4  P.a.............
 11a0 10b6069c 00fe1008 00f410b6 fc8f8008  ................
 11b0 050005f7 14a843b0 dd8f02ac 030030e0  ......C.......0.
 11c0 0ef8                                 ..              
Contents of section .rodata:
 0000 0a0d4861 6c6c6f20 57656c74 210a0d00  ..Hallo Welt!...
 0010 00000000 00000000 00000000 00000000  ................
 0020 20507573 68627574 746f6e20 31200000   Pushbutton 1 ..
 0030 00000000 00000000 00000000 00000000  ................
 0040 20507573 68627574 746f6e20 32200000   Pushbutton 2 ..
 0050 00000000 00000000 00000000 00000000  ................
 0060 20507573 68627574 746f6e20 33200000   Pushbutton 3 ..
 0070 00000000 00000000 00000000 00000000  ................
 0080 0d000000 00000000 00000000 00000000  ................
 0090 00000000 00000000 00000000 00000000  ................

Disassembly of section .text:

00000000 <.text>:
       0:	05 10       	ldhi r5,0
       2:	05 20       	ldliu r5,0x0
       4:	85 a1       	sli r5,0x8
       6:	05 20       	ldliu r5,0x0
       8:	85 a1       	sli r5,0x8
       a:	05 2a       	ldliu r5,0xa0
       c:	06 10       	ldhi r6,0
       e:	06 20       	ldliu r6,0x0
      10:	86 a1       	sli r6,0x8
      12:	06 20       	ldliu r6,0x0
      14:	86 a1       	sli r6,0x8
      16:	46 2b       	ldliu r6,0xb4
      18:	65 b0       	cmp_eq r5,r6
      1a:	06 9c       	jmpi_ct 6
      1c:	07 00       	ldli r7,0
      1e:	57 f5       	stw r7,r5
      20:	45 a8       	addi r5,4
      22:	65 b1       	cmp_lt r5,r6
      24:	fd 9f       	jmpi_ct -3
      26:	00 10       	ldhi r0,0
      28:	00 20       	ldliu r0,0x0
      2a:	01 10       	ldhi r1,0
      2c:	01 20       	ldliu r1,0x0
      2e:	02 10       	ldhi r2,0
      30:	02 20       	ldliu r2,0x0
      32:	03 10       	ldhi r3,0
      34:	03 20       	ldliu r3,0x0
      36:	04 10       	ldhi r4,0
      38:	04 20       	ldliu r4,0x0
      3a:	05 10       	ldhi r5,0
      3c:	05 20       	ldliu r5,0x0
      3e:	06 10       	ldhi r6,0
      40:	06 20       	ldliu r6,0x0
      42:	07 10       	ldhi r7,0
      44:	07 20       	ldliu r7,0x0
      46:	08 10       	ldhi r8,0
      48:	08 20       	ldliu r8,0x0
      4a:	09 10       	ldhi r9,0
      4c:	09 20       	ldliu r9,0x0
      4e:	0a 10       	ldhi r10,0
      50:	0a 20       	ldliu r10,0x0
      52:	0b 10       	ldhi r11,0
      54:	0b 20       	ldliu r11,0x0
      56:	0c 10       	ldhi r12,0
      58:	0c 20       	ldliu r12,0x0
      5a:	0d 10       	ldhi r13,0
      5c:	0d 20       	ldliu r13,0x0
      5e:	0e 10       	ldhi r14,0
      60:	0e 20       	ldliu r14,0x0
      62:	0f 10       	ldhi r15,0
      64:	0f 20       	ldliu r15,0x0
      66:	87 0e       	ldli r7,-24
      68:	0d 10       	ldhi r13,0
      6a:	0d 20       	ldliu r13,0x0
      6c:	7d f5       	stw r13,r7
      6e:	c7 0e       	ldli r7,-20
      70:	0d 10       	ldhi r13,0
      72:	0d 20       	ldliu r13,0x0
      74:	7d f5       	stw r13,r7
      76:	07 0f       	ldli r7,-16
      78:	0d 10       	ldhi r13,0
      7a:	0d 20       	ldliu r13,0x0
      7c:	7d f5       	stw r13,r7
      7e:	47 0f       	ldli r7,-12
      80:	0d 10       	ldhi r13,0
      82:	0d 20       	ldliu r13,0x0
      84:	7d f5       	stw r13,r7
      86:	0d 10       	ldhi r13,0
      88:	2d 20       	ldliu r13,0x2
      8a:	8d a1       	sli r13,0x8
      8c:	0d 20       	ldliu r13,0x0
      8e:	8d a1       	sli r13,0x8
      90:	0d 20       	ldliu r13,0x0
      92:	07 0f       	ldli r7,-16
      94:	7d f5       	stw r13,r7
      96:	47 0f       	ldli r7,-12
      98:	7d f5       	stw r13,r7
      9a:	0d 10       	ldhi r13,0
      9c:	0d 20       	ldliu r13,0x0
      9e:	8d a1       	sli r13,0x8
      a0:	0d 20       	ldliu r13,0x0
      a2:	8d a1       	sli r13,0x8
      a4:	cd 25       	ldliu r13,0x5c
      a6:	0d ee       	jsr r13
      a8:	01 e0       	mov r1,r0
      aa:	0d 10       	ldhi r13,0
      ac:	0d 20       	ldliu r13,0x0
      ae:	8d a1       	sli r13,0x8
      b0:	7d 20       	ldliu r13,0x7
      b2:	8d a1       	sli r13,0x8
      b4:	ed 28       	ldliu r13,0x8e
      b6:	0d ee       	jsr r13
      b8:	f9 5f       	stfpz_dec r9,-1
      ba:	fa 5f       	stfpz_dec r10,-1
      bc:	fb 5f       	stfpz_dec r11,-1
      be:	fc 5f       	stfpz_dec r12,-1
      c0:	fe 5f       	stfpz_dec r14,-1
      c2:	07 0f       	ldli r7,-16
      c4:	7d f0       	ldw r13,r7
      c6:	fd 5f       	stfpz_dec r13,-1
      c8:	47 0f       	ldli r7,-12
      ca:	7d f0       	ldw r13,r7
      cc:	07 0f       	ldli r7,-16
      ce:	7d f5       	stw r13,r7
      d0:	47 0f       	ldli r7,-12
      d2:	7d f0       	ldw r13,r7
      d4:	46 05       	ldli r6,84
      d6:	f6 1f       	ldhi r6,-1
      d8:	6d e1       	add r13,r6
      da:	7d f5       	stw r13,r7
      dc:	0d 0f       	ldli r13,-16
      de:	db f0       	ldw r11,r13
      e0:	40 0d       	ldli r0,-44
      e2:	0b e1       	add r11,r0
      e4:	09 10       	ldhi r9,0
      e6:	09 20       	ldliu r9,0x0
      e8:	89 a1       	sli r9,0x8
      ea:	79 20       	ldliu r9,0x7
      ec:	89 a1       	sli r9,0x8
      ee:	a9 26       	ldliu r9,0x6a
      f0:	b1 e0       	mov r1,r11
      f2:	02 10       	ldhi r2,0
      f4:	02 20       	ldliu r2,0x0
      f6:	82 a1       	sli r2,0x8
      f8:	02 20       	ldliu r2,0x0
      fa:	82 a1       	sli r2,0x8
      fc:	02 20       	ldliu r2,0x0
      fe:	03 01       	ldli r3,16
     100:	09 ee       	jsr r9
     102:	0d 0f       	ldli r13,-16
     104:	d0 f0       	ldw r0,r13
     106:	40 aa       	addi r0,-28
     108:	02 00       	ldli r2,0
     10a:	02 f5       	stw r2,r0
     10c:	40 a8       	addi r0,4
     10e:	02 f5       	stw r2,r0
     110:	40 a8       	addi r0,4
     112:	02 f5       	stw r2,r0
     114:	40 a8       	addi r0,4
     116:	02 f5       	stw r2,r0
     118:	0d 0f       	ldli r13,-16
     11a:	d1 f0       	ldw r1,r13
     11c:	40 0b       	ldli r0,-76
     11e:	01 e1       	add r1,r0
     120:	02 10       	ldhi r2,0
     122:	02 20       	ldliu r2,0x0
     124:	82 a1       	sli r2,0x8
     126:	02 20       	ldliu r2,0x0
     128:	82 a1       	sli r2,0x8
     12a:	02 22       	ldliu r2,0x20
     12c:	f3 00       	ldli r3,15
     12e:	09 ee       	jsr r9
     130:	0a 10       	ldhi r10,0
     132:	0a 20       	ldliu r10,0x0
     134:	8a a1       	sli r10,0x8
     136:	7a 20       	ldliu r10,0x7
     138:	8a a1       	sli r10,0x8
     13a:	9a 27       	ldliu r10,0x79
     13c:	41 0b       	ldli r1,-76
     13e:	0d 0f       	ldli r13,-16
     140:	dd f0       	ldw r13,r13
     142:	d1 e1       	add r1,r13
     144:	f1 a8       	addi r1,15
     146:	02 00       	ldli r2,0
     148:	13 01       	ldli r3,17
     14a:	0a ee       	jsr r10
     14c:	0d 0f       	ldli r13,-16
     14e:	d1 f0       	ldw r1,r13
     150:	42 09       	ldli r2,-108
     152:	21 e1       	add r1,r2
     154:	02 10       	ldhi r2,0
     156:	02 20       	ldliu r2,0x0
     158:	82 a1       	sli r2,0x8
     15a:	02 20       	ldliu r2,0x0
     15c:	82 a1       	sli r2,0x8
     15e:	02 24       	ldliu r2,0x40
     160:	f3 00       	ldli r3,15
     162:	09 ee       	jsr r9
     164:	41 09       	ldli r1,-108
     166:	0d 0f       	ldli r13,-16
     168:	dd f0       	ldw r13,r13
     16a:	d1 e1       	add r1,r13
     16c:	f1 a8       	addi r1,15
     16e:	02 00       	ldli r2,0
     170:	13 01       	ldli r3,17
     172:	0a ee       	jsr r10
     174:	0d 0f       	ldli r13,-16
     176:	d1 f0       	ldw r1,r13
     178:	43 07       	ldli r3,116
     17a:	f3 1f       	ldhi r3,-1
     17c:	31 e1       	add r1,r3
     17e:	02 10       	ldhi r2,0
     180:	02 20       	ldliu r2,0x0
     182:	82 a1       	sli r2,0x8
     184:	02 20       	ldliu r2,0x0
     186:	82 a1       	sli r2,0x8
     188:	02 26       	ldliu r2,0x60
     18a:	f3 00       	ldli r3,15
     18c:	09 ee       	jsr r9
     18e:	41 07       	ldli r1,116
     190:	f1 1f       	ldhi r1,-1
     192:	0d 0f       	ldli r13,-16
     194:	dd f0       	ldw r13,r13
     196:	d1 e1       	add r1,r13
     198:	f1 a8       	addi r1,15
     19a:	02 00       	ldli r2,0
     19c:	13 01       	ldli r3,17
     19e:	0a ee       	jsr r10
     1a0:	0d 0f       	ldli r13,-16
     1a2:	dc f0       	ldw r12,r13
     1a4:	44 05       	ldli r4,84
     1a6:	f4 1f       	ldhi r4,-1
     1a8:	4c e1       	add r12,r4
     1aa:	00 10       	ldhi r0,0
     1ac:	00 20       	ldliu r0,0x0
     1ae:	80 a1       	sli r0,0x8
     1b0:	00 20       	ldliu r0,0x0
     1b2:	80 a1       	sli r0,0x8
     1b4:	00 28       	ldliu r0,0x80
     1b6:	02 f4       	ldbu r2,r0
     1b8:	c1 e0       	mov r1,r12
     1ba:	c2 f7       	stb r2,r12
     1bc:	1c a8       	addi r12,1
     1be:	10 a8       	addi r0,1
     1c0:	00 f4       	ldbu r0,r0
     1c2:	c0 f7       	stb r0,r12
     1c4:	fc ab       	addi r12,-1
     1c6:	21 a8       	addi r1,2
     1c8:	02 00       	ldli r2,0
     1ca:	e3 01       	ldli r3,30
     1cc:	0a ee       	jsr r10
     1ce:	24 10       	ldhi r4,2
     1d0:	a4 2f       	ldliu r4,0xfa
     1d2:	84 a1       	sli r4,0x8
     1d4:	04 2f       	ldliu r4,0xf0
     1d6:	84 a1       	sli r4,0x8
     1d8:	04 28       	ldliu r4,0x80
     1da:	d4 7b       	stfpy r4,-3
     1dc:	00 10       	ldhi r0,0
     1de:	10 20       	ldliu r0,0x1
     1e0:	80 a1       	sli r0,0x8
     1e2:	20 2c       	ldliu r0,0xc2
     1e4:	80 a1       	sli r0,0x8
     1e6:	00 20       	ldliu r0,0x0
     1e8:	e0 7b       	stfpy r0,-2
     1ea:	0d 0f       	ldli r13,-16
     1ec:	d0 f0       	ldw r0,r13
     1ee:	c0 ab       	addi r0,-4
     1f0:	01 f0       	ldw r1,r0
     1f2:	03 0c       	ldli r3,-64
     1f4:	31 e5       	and r1,r3
     1f6:	74 00       	ldli r4,7
     1f8:	41 e6       	or r1,r4
     1fa:	51 a4       	bset r1,0x5
     1fc:	61 a6       	bclr r1,0x6
     1fe:	01 f5       	stw r1,r0
     200:	4d 0f       	ldli r13,-12
     202:	d0 f0       	ldw r0,r13
     204:	40 ab       	addi r0,-12
     206:	4d 0f       	ldli r13,-12
     208:	d0 f5       	stw r0,r13
     20a:	22 10       	ldhi r2,2
     20c:	a2 2f       	ldliu r2,0xfa
     20e:	82 a1       	sli r2,0x8
     210:	02 2f       	ldliu r2,0xf0
     212:	82 a1       	sli r2,0x8
     214:	02 28       	ldliu r2,0x80
     216:	02 7c       	stfpz r2,0
     218:	40 a8       	addi r0,4
     21a:	04 10       	ldhi r4,0
     21c:	14 20       	ldliu r4,0x1
     21e:	84 a1       	sli r4,0x8
     220:	24 2c       	ldliu r4,0xc2
     222:	84 a1       	sli r4,0x8
     224:	04 20       	ldliu r4,0x0
     226:	04 f5       	stw r4,r0
     228:	40 a8       	addi r0,4
     22a:	01 f5       	stw r1,r0
     22c:	00 10       	ldhi r0,0
     22e:	00 20       	ldliu r0,0x0
     230:	80 a1       	sli r0,0x8
     232:	70 20       	ldliu r0,0x7
     234:	80 a1       	sli r0,0x8
     236:	d0 2b       	ldliu r0,0xbd
     238:	00 ee       	jsr r0
     23a:	4d 0f       	ldli r13,-12
     23c:	d0 f0       	ldw r0,r13
     23e:	c0 a8       	addi r0,12
     240:	4d 0f       	ldli r13,-12
     242:	d0 f5       	stw r0,r13
     244:	01 10       	ldhi r1,0
     246:	01 20       	ldliu r1,0x0
     248:	81 a1       	sli r1,0x8
     24a:	01 20       	ldliu r1,0x0
     24c:	81 a1       	sli r1,0x8
     24e:	81 2a       	ldliu r1,0xa8
     250:	02 0e       	ldli r2,-32
     252:	e2 1f       	ldhi r2,-2
     254:	83 00       	ldli r3,8
     256:	00 10       	ldhi r0,0
     258:	00 20       	ldliu r0,0x0
     25a:	80 a1       	sli r0,0x8
     25c:	20 20       	ldliu r0,0x2
     25e:	80 a1       	sli r0,0x8
     260:	e0 2a       	ldliu r0,0xae
     262:	00 ee       	jsr r0
     264:	01 10       	ldhi r1,0
     266:	01 20       	ldliu r1,0x0
     268:	81 a1       	sli r1,0x8
     26a:	01 20       	ldliu r1,0x0
     26c:	81 a1       	sli r1,0x8
     26e:	81 2a       	ldliu r1,0xa8
     270:	02 00       	ldli r2,0
     272:	23 04       	ldli r3,66
     274:	00 10       	ldhi r0,0
     276:	00 20       	ldliu r0,0x0
     278:	80 a1       	sli r0,0x8
     27a:	60 20       	ldliu r0,0x6
     27c:	80 a1       	sli r0,0x8
     27e:	00 26       	ldliu r0,0x60
     280:	00 ee       	jsr r0
     282:	b1 e0       	mov r1,r11
     284:	02 10       	ldhi r2,0
     286:	02 20       	ldliu r2,0x0
     288:	82 a1       	sli r2,0x8
     28a:	72 20       	ldliu r2,0x7
     28c:	82 a1       	sli r2,0x8
     28e:	32 28       	ldliu r2,0x83
     290:	02 ee       	jsr r2
     292:	01 00       	ldli r1,0
     294:	b2 e0       	mov r2,r11
     296:	03 e0       	mov r3,r0
     298:	04 10       	ldhi r4,0
     29a:	04 20       	ldliu r4,0x0
     29c:	84 a1       	sli r4,0x8
     29e:	84 20       	ldliu r4,0x8
     2a0:	84 a1       	sli r4,0x8
     2a2:	64 2b       	ldliu r4,0xb6
     2a4:	04 ee       	jsr r4
     2a6:	00 10       	ldhi r0,0
     2a8:	00 20       	ldliu r0,0x0
     2aa:	80 a1       	sli r0,0x8
     2ac:	20 20       	ldliu r0,0x2
     2ae:	80 a1       	sli r0,0x8
     2b0:	50 20       	ldliu r0,0x5
     2b2:	20 fd       	stvec r0,-14
     2b4:	61 0e       	ldli r1,-26
     2b6:	10 f2       	ldhu r0,r1
     2b8:	20 a6       	bclr r0,0x2
     2ba:	10 f6       	sth r0,r1
     2bc:	d1 ab       	addi r1,-3
     2be:	10 f4       	ldbu r0,r1
     2c0:	04 08       	ldli r4,-128
     2c2:	40 e6       	or r0,r4
     2c4:	10 f7       	stb r0,r1
     2c6:	21 10       	ldhi r1,2
     2c8:	a1 2f       	ldliu r1,0xfa
     2ca:	81 a1       	sli r1,0x8
     2cc:	01 2f       	ldliu r1,0xf0
     2ce:	81 a1       	sli r1,0x8
     2d0:	01 28       	ldliu r1,0x80
     2d2:	02 00       	ldli r2,0
     2d4:	00 10       	ldhi r0,0
     2d6:	00 20       	ldliu r0,0x0
     2d8:	80 a1       	sli r0,0x8
     2da:	20 20       	ldliu r0,0x2
     2dc:	80 a1       	sli r0,0x8
     2de:	40 2a       	ldliu r0,0xa4
     2e0:	00 ee       	jsr r0
     2e2:	01 10       	ldhi r1,0
     2e4:	01 20       	ldliu r1,0x0
     2e6:	81 a1       	sli r1,0x8
     2e8:	01 20       	ldliu r1,0x0
     2ea:	81 a1       	sli r1,0x8
     2ec:	01 2a       	ldliu r1,0xa0
     2ee:	02 06       	ldli r2,96
     2f0:	e2 1f       	ldhi r2,-2
     2f2:	00 10       	ldhi r0,0
     2f4:	00 20       	ldliu r0,0x0
     2f6:	80 a1       	sli r0,0x8
     2f8:	20 20       	ldliu r0,0x2
     2fa:	80 a1       	sli r0,0x8
     2fc:	90 28       	ldliu r0,0x89
     2fe:	00 ee       	jsr r0
     300:	00 10       	ldhi r0,0
     302:	00 20       	ldliu r0,0x0
     304:	80 a1       	sli r0,0x8
     306:	20 20       	ldliu r0,0x2
     308:	80 a1       	sli r0,0x8
     30a:	20 29       	ldliu r0,0x92
     30c:	00 ee       	jsr r0
     30e:	09 00       	ldli r9,0
     310:	0b 10       	ldhi r11,0
     312:	0b 20       	ldliu r11,0x0
     314:	8b a1       	sli r11,0x8
     316:	2b 20       	ldliu r11,0x2
     318:	8b a1       	sli r11,0x8
     31a:	8b 26       	ldliu r11,0x68
     31c:	01 10       	ldhi r1,0
     31e:	01 20       	ldliu r1,0x0
     320:	81 a1       	sli r1,0x8
     322:	21 20       	ldliu r1,0x2
     324:	81 a1       	sli r1,0x8
     326:	a1 25       	ldliu r1,0x5a
     328:	01 ee       	jsr r1
     32a:	0a e0       	mov r10,r0
     32c:	09 b0       	cmp_eq r9,r0
     32e:	07 9c       	jmpi_ct 7
     330:	20 b6       	btest r0,0x2
     332:	51 9c       	jmpi_ct 81
     334:	1a b6       	btest r10,0x1
     336:	36 9c       	jmpi_ct 54
     338:	0a b6       	btest r10,0x0
     33a:	1b 9c       	jmpi_ct 27
     33c:	09 00       	ldli r9,0
     33e:	91 e0       	mov r1,r9
     340:	0b ee       	jsr r11
     342:	19 a8       	addi r9,1
     344:	29 b9       	cmpi_eq r9,18
     346:	fc 8f       	jmpi_cf -4
     348:	c1 e0       	mov r1,r12
     34a:	02 10       	ldhi r2,0
     34c:	02 20       	ldliu r2,0x0
     34e:	82 a1       	sli r2,0x8
     350:	72 20       	ldliu r2,0x7
     352:	82 a1       	sli r2,0x8
     354:	32 28       	ldliu r2,0x83
     356:	02 ee       	jsr r2
     358:	01 00       	ldli r1,0
     35a:	c2 e0       	mov r2,r12
     35c:	03 e0       	mov r3,r0
     35e:	04 10       	ldhi r4,0
     360:	04 20       	ldliu r4,0x0
     362:	84 a1       	sli r4,0x8
     364:	84 20       	ldliu r4,0x8
     366:	84 a1       	sli r4,0x8
     368:	64 2b       	ldliu r4,0xb6
     36a:	04 ee       	jsr r4
     36c:	a9 e0       	mov r9,r10
     36e:	d7 af       	jmpi -41
     370:	0d 0f       	ldli r13,-16
     372:	d1 f0       	ldw r1,r13
     374:	40 0b       	ldli r0,-76
     376:	01 e1       	add r1,r0
     378:	02 10       	ldhi r2,0
     37a:	02 20       	ldliu r2,0x0
     37c:	82 a1       	sli r2,0x8
     37e:	72 20       	ldliu r2,0x7
     380:	82 a1       	sli r2,0x8
     382:	32 28       	ldliu r2,0x83
     384:	02 ee       	jsr r2
     386:	01 00       	ldli r1,0
     388:	0d 0f       	ldli r13,-16
     38a:	d2 f0       	ldw r2,r13
     38c:	43 0b       	ldli r3,-76
     38e:	32 e1       	add r2,r3
     390:	03 e0       	mov r3,r0
     392:	04 10       	ldhi r4,0
     394:	04 20       	ldliu r4,0x0
     396:	84 a1       	sli r4,0x8
     398:	84 20       	ldliu r4,0x8
     39a:	84 a1       	sli r4,0x8
     39c:	64 2b       	ldliu r4,0xb6
     39e:	04 ee       	jsr r4
     3a0:	ce af       	jmpi -50
     3a2:	0d 0f       	ldli r13,-16
     3a4:	d1 f0       	ldw r1,r13
     3a6:	40 09       	ldli r0,-108
     3a8:	01 e1       	add r1,r0
     3aa:	02 10       	ldhi r2,0
     3ac:	02 20       	ldliu r2,0x0
     3ae:	82 a1       	sli r2,0x8
     3b0:	72 20       	ldliu r2,0x7
     3b2:	82 a1       	sli r2,0x8
     3b4:	32 28       	ldliu r2,0x83
     3b6:	02 ee       	jsr r2
     3b8:	01 00       	ldli r1,0
     3ba:	0d 0f       	ldli r13,-16
     3bc:	d2 f0       	ldw r2,r13
     3be:	43 09       	ldli r3,-108
     3c0:	32 e1       	add r2,r3
     3c2:	03 e0       	mov r3,r0
     3c4:	04 10       	ldhi r4,0
     3c6:	04 20       	ldliu r4,0x0
     3c8:	84 a1       	sli r4,0x8
     3ca:	84 20       	ldliu r4,0x8
     3cc:	84 a1       	sli r4,0x8
     3ce:	64 2b       	ldliu r4,0xb6
     3d0:	04 ee       	jsr r4
     3d2:	b3 af       	jmpi -77
     3d4:	0d 0f       	ldli r13,-16
     3d6:	d1 f0       	ldw r1,r13
     3d8:	42 07       	ldli r2,116
     3da:	f2 1f       	ldhi r2,-1
     3dc:	21 e1       	add r1,r2
     3de:	03 10       	ldhi r3,0
     3e0:	03 20       	ldliu r3,0x0
     3e2:	83 a1       	sli r3,0x8
     3e4:	73 20       	ldliu r3,0x7
     3e6:	83 a1       	sli r3,0x8
     3e8:	33 28       	ldliu r3,0x83
     3ea:	03 ee       	jsr r3
     3ec:	01 00       	ldli r1,0
     3ee:	0d 0f       	ldli r13,-16
     3f0:	d2 f0       	ldw r2,r13
     3f2:	44 07       	ldli r4,116
     3f4:	f4 1f       	ldhi r4,-1
     3f6:	42 e1       	add r2,r4
     3f8:	03 e0       	mov r3,r0
     3fa:	04 10       	ldhi r4,0
     3fc:	04 20       	ldliu r4,0x0
     3fe:	84 a1       	sli r4,0x8
     400:	84 20       	ldliu r4,0x8
     402:	84 a1       	sli r4,0x8
     404:	64 2b       	ldliu r4,0xb6
     406:	04 ee       	jsr r4
     408:	96 af       	jmpi -106
     40a:	f7 5f       	stfpz_dec r7,-1
     40c:	fd 5f       	stfpz_dec r13,-1
     40e:	ff 5f       	stfpz_dec r15,-1
     410:	87 0f       	ldli r7,-8
     412:	7d f4       	ldbu r13,r7
     414:	fd 5f       	stfpz_dec r13,-1
     416:	37 0e       	ldli r7,-29
     418:	7d f4       	ldbu r13,r7
     41a:	7d a4       	bset r13,0x7
     41c:	7d f7       	stb r13,r7
     41e:	f0 5f       	stfpz_dec r0,-1
     420:	f1 5f       	stfpz_dec r1,-1
     422:	f2 5f       	stfpz_dec r2,-1
     424:	f3 5f       	stfpz_dec r3,-1
     426:	f4 5f       	stfpz_dec r4,-1
     428:	f5 5f       	stfpz_dec r5,-1
     42a:	f6 5f       	stfpz_dec r6,-1
     42c:	f7 5f       	stfpz_dec r7,-1
     42e:	f8 5f       	stfpz_dec r8,-1
     430:	fe 5f       	stfpz_dec r14,-1
     432:	87 0e       	ldli r7,-24
     434:	7d f0       	ldw r13,r7
     436:	fd 5f       	stfpz_dec r13,-1
     438:	c7 0e       	ldli r7,-20
     43a:	7d f0       	ldw r13,r7
     43c:	fd 5f       	stfpz_dec r13,-1
     43e:	07 0f       	ldli r7,-16
     440:	7d f0       	ldw r13,r7
     442:	fd 5f       	stfpz_dec r13,-1
     444:	47 0f       	ldli r7,-12
     446:	7d f0       	ldw r13,r7
     448:	07 0f       	ldli r7,-16
     44a:	7d f5       	stw r13,r7
     44c:	01 10       	ldhi r1,0
     44e:	41 20       	ldliu r1,0x4
     450:	81 a1       	sli r1,0x8
     452:	01 20       	ldliu r1,0x0
     454:	81 a1       	sli r1,0x8
     456:	01 20       	ldliu r1,0x0
     458:	00 10       	ldhi r0,0
     45a:	00 20       	ldliu r0,0x0
     45c:	80 a1       	sli r0,0x8
     45e:	20 20       	ldliu r0,0x2
     460:	80 a1       	sli r0,0x8
     462:	c0 27       	ldliu r0,0x7c
     464:	00 ee       	jsr r0
     466:	01 10       	ldhi r1,0
     468:	01 20       	ldliu r1,0x0
     46a:	81 a1       	sli r1,0x8
     46c:	01 20       	ldliu r1,0x0
     46e:	81 a1       	sli r1,0x8
     470:	01 2a       	ldliu r1,0xa0
     472:	00 10       	ldhi r0,0
     474:	00 20       	ldliu r0,0x0
     476:	80 a1       	sli r0,0x8
     478:	20 20       	ldliu r0,0x2
     47a:	80 a1       	sli r0,0x8
     47c:	c0 28       	ldliu r0,0x8c
     47e:	00 ee       	jsr r0
     480:	07 0f       	ldli r7,-16
     482:	0d 4c       	ldfpz_inc r13,0
     484:	7d f5       	stw r13,r7
     486:	c7 0e       	ldli r7,-20
     488:	0d 4c       	ldfpz_inc r13,0
     48a:	7d f5       	stw r13,r7
     48c:	87 0e       	ldli r7,-24
     48e:	0d 4c       	ldfpz_inc r13,0
     490:	7d f5       	stw r13,r7
     492:	0e 4c       	ldfpz_inc r14,0
     494:	08 4c       	ldfpz_inc r8,0
     496:	07 4c       	ldfpz_inc r7,0
     498:	06 4c       	ldfpz_inc r6,0
     49a:	05 4c       	ldfpz_inc r5,0
     49c:	04 4c       	ldfpz_inc r4,0
     49e:	03 4c       	ldfpz_inc r3,0
     4a0:	02 4c       	ldfpz_inc r2,0
     4a2:	01 4c       	ldfpz_inc r1,0
     4a4:	00 4c       	ldfpz_inc r0,0
     4a6:	87 0f       	ldli r7,-8
     4a8:	0d 4c       	ldfpz_inc r13,0
     4aa:	7d f7       	stb r13,r7
     4ac:	0f 4c       	ldfpz_inc r15,0
     4ae:	0d 4c       	ldfpz_inc r13,0
     4b0:	07 4c       	ldfpz_inc r7,0
     4b2:	0f f9       	rte
     4b4:	42 08       	ldli r2,-124
     4b6:	e2 1f       	ldhi r2,-2
     4b8:	21 f0       	ldw r1,r2
     4ba:	01 ec       	not r1
     4bc:	13 00       	ldli r3,1
     4be:	31 e5       	and r1,r3
     4c0:	20 f0       	ldw r0,r2
     4c2:	10 b6       	btest r0,0x1
     4c4:	11 84       	bset_cf r1,0x1
     4c6:	20 f0       	ldw r0,r2
     4c8:	20 b6       	btest r0,0x2
     4ca:	21 84       	bset_cf r1,0x2
     4cc:	10 e0       	mov r0,r1
     4ce:	0e f8       	rts
     4d0:	40 08       	ldli r0,-124
     4d2:	e0 1f       	ldhi r0,-2
     4d4:	02 f0       	ldw r2,r0
     4d6:	03 00       	ldli r3,0
     4d8:	32 e9       	srai r2,0x3
     4da:	00 10       	ldhi r0,0
     4dc:	30 20       	ldliu r0,0x3
     4de:	80 a1       	sli r0,0x8
     4e0:	f0 2f       	ldliu r0,0xff
     4e2:	80 a1       	sli r0,0x8
     4e4:	f0 2f       	ldliu r0,0xff
     4e6:	02 e5       	and r2,r0
     4e8:	10 00       	ldli r0,1
     4ea:	10 a0       	sl r0,r1
     4ec:	02 e5       	and r2,r0
     4ee:	02 b8       	cmpi_eq r2,0
     4f0:	02 9c       	jmpi_ct 2
     4f2:	13 00       	ldli r3,1
     4f4:	30 e0       	mov r0,r3
     4f6:	0e f8       	rts
     4f8:	12 e0       	mov r2,r1
     4fa:	50 01       	ldli r0,21
     4fc:	02 a0       	sl r2,r0
     4fe:	40 08       	ldli r0,-124
     500:	e0 1f       	ldhi r0,-2
     502:	02 f5       	stw r2,r0
     504:	51 a1       	sli r1,0x5
     506:	00 01       	ldli r0,16
     508:	01 a2       	sr r1,r0
     50a:	80 08       	ldli r0,-120
     50c:	e0 1f       	ldhi r0,-2
     50e:	01 f5       	stw r1,r0
     510:	0e f8       	rts
     512:	12 f5       	stw r2,r1
     514:	0e f8       	rts
     516:	0e f8       	rts
     518:	11 f0       	ldw r1,r1
     51a:	21 a8       	addi r1,2
     51c:	10 f4       	ldbu r0,r1
     51e:	00 a4       	bset r0,0x0
     520:	10 f7       	stb r0,r1
     522:	0e f8       	rts
     524:	30 06       	ldli r0,99
     526:	e0 1f       	ldhi r0,-2
     528:	01 f0       	ldw r1,r0
     52a:	11 a6       	bclr r1,0x1
     52c:	01 f5       	stw r1,r0
     52e:	01 f0       	ldw r1,r0
     530:	01 a4       	bset r1,0x0
     532:	01 f5       	stw r1,r0
     534:	0e f8       	rts
     536:	30 06       	ldli r0,99
     538:	e0 1f       	ldhi r0,-2
     53a:	01 f0       	ldw r1,r0
     53c:	01 a6       	bclr r1,0x0
     53e:	01 f5       	stw r1,r0
     540:	01 f0       	ldw r1,r0
     542:	11 a4       	bset r1,0x1
     544:	01 f5       	stw r1,r0
     546:	0e f8       	rts
     548:	40 06       	ldli r0,100
     54a:	e0 1f       	ldhi r0,-2
     54c:	01 f5       	stw r1,r0
     54e:	80 01       	ldli r0,24
     550:	02 a0       	sl r2,r0
     552:	02 a2       	sr r2,r0
     554:	80 06       	ldli r0,104
     556:	e0 1f       	ldhi r0,-2
     558:	02 f5       	stw r2,r0
     55a:	0e f8       	rts
     55c:	07 0f       	ldli r7,-16
     55e:	7d f0       	ldw r13,r7
     560:	fd 5f       	stfpz_dec r13,-1
     562:	47 0f       	ldli r7,-12
     564:	7d f0       	ldw r13,r7
     566:	07 0f       	ldli r7,-16
     568:	7d f5       	stw r13,r7
     56a:	47 0f       	ldli r7,-12
     56c:	7d f0       	ldw r13,r7
     56e:	4d ab       	addi r13,-12
     570:	7d f5       	stw r13,r7
     572:	0d 0f       	ldli r13,-16
     574:	d0 f0       	ldw r0,r13
     576:	c0 ab       	addi r0,-4
     578:	04 e0       	mov r4,r0
     57a:	41 f5       	stw r1,r4
     57c:	0d 0f       	ldli r13,-16
     57e:	d0 f0       	ldw r0,r13
     580:	80 ab       	addi r0,-8
     582:	01 e0       	mov r1,r0
     584:	12 f5       	stw r2,r1
     586:	0d 0f       	ldli r13,-16
     588:	d0 f0       	ldw r0,r13
     58a:	70 ab       	addi r0,-9
     58c:	02 e0       	mov r2,r0
     58e:	23 f7       	stb r3,r2
     590:	0d 0f       	ldli r13,-16
     592:	d0 f0       	ldw r0,r13
     594:	c0 ab       	addi r0,-4
     596:	04 e0       	mov r4,r0
     598:	41 f0       	ldw r1,r4
     59a:	0d 0f       	ldli r13,-16
     59c:	d0 f0       	ldw r0,r13
     59e:	80 ab       	addi r0,-8
     5a0:	02 e0       	mov r2,r0
     5a2:	20 f0       	ldw r0,r2
     5a4:	14 e0       	mov r4,r1
     5a6:	40 f5       	stw r0,r4
     5a8:	0d 0f       	ldli r13,-16
     5aa:	d0 f0       	ldw r0,r13
     5ac:	c0 ab       	addi r0,-4
     5ae:	01 e0       	mov r1,r0
     5b0:	10 f0       	ldw r0,r1
     5b2:	01 e0       	mov r1,r0
     5b4:	41 a8       	addi r1,4
     5b6:	0d 0f       	ldli r13,-16
     5b8:	d0 f0       	ldw r0,r13
     5ba:	70 ab       	addi r0,-9
     5bc:	02 e0       	mov r2,r0
     5be:	20 f4       	ldbu r0,r2
     5c0:	14 e0       	mov r4,r1
     5c2:	40 f7       	stb r0,r4
     5c4:	47 0f       	ldli r7,-12
     5c6:	7d f0       	ldw r13,r7
     5c8:	cd a8       	addi r13,12
     5ca:	7d f5       	stw r13,r7
     5cc:	07 0f       	ldli r7,-16
     5ce:	0d 4c       	ldfpz_inc r13,0
     5d0:	7d f5       	stw r13,r7
     5d2:	0e f8       	rts
     5d4:	07 0f       	ldli r7,-16
     5d6:	7d f0       	ldw r13,r7
     5d8:	fd 5f       	stfpz_dec r13,-1
     5da:	47 0f       	ldli r7,-12
     5dc:	7d f0       	ldw r13,r7
     5de:	07 0f       	ldli r7,-16
     5e0:	7d f5       	stw r13,r7
     5e2:	47 0f       	ldli r7,-12
     5e4:	7d f0       	ldw r13,r7
     5e6:	cd ab       	addi r13,-4
     5e8:	7d f5       	stw r13,r7
     5ea:	0d 0f       	ldli r13,-16
     5ec:	d0 f0       	ldw r0,r13
     5ee:	c0 ab       	addi r0,-4
     5f0:	02 e0       	mov r2,r0
     5f2:	21 f5       	stw r1,r2
     5f4:	47 0f       	ldli r7,-12
     5f6:	7d f0       	ldw r13,r7
     5f8:	4d a8       	addi r13,4
     5fa:	7d f5       	stw r13,r7
     5fc:	07 0f       	ldli r7,-16
     5fe:	0d 4c       	ldfpz_inc r13,0
     600:	7d f5       	stw r13,r7
     602:	0e f8       	rts
     604:	07 0f       	ldli r7,-16
     606:	7d f0       	ldw r13,r7
     608:	fd 5f       	stfpz_dec r13,-1
     60a:	47 0f       	ldli r7,-12
     60c:	7d f0       	ldw r13,r7
     60e:	07 0f       	ldli r7,-16
     610:	7d f5       	stw r13,r7
     612:	47 0f       	ldli r7,-12
     614:	7d f0       	ldw r13,r7
     616:	4d ab       	addi r13,-12
     618:	7d f5       	stw r13,r7
     61a:	0d 0f       	ldli r13,-16
     61c:	d0 f0       	ldw r0,r13
     61e:	80 ab       	addi r0,-8
     620:	03 e0       	mov r3,r0
     622:	31 f5       	stw r1,r3
     624:	0d 0f       	ldli r13,-16
     626:	d0 f0       	ldw r0,r13
     628:	60 ab       	addi r0,-10
     62a:	01 e0       	mov r1,r0
     62c:	12 f6       	sth r2,r1
     62e:	0d 0f       	ldli r13,-16
     630:	d0 f0       	ldw r0,r13
     632:	80 ab       	addi r0,-8
     634:	02 e0       	mov r2,r0
     636:	20 f0       	ldw r0,r2
     638:	03 e0       	mov r3,r0
     63a:	30 f0       	ldw r0,r3
     63c:	01 e0       	mov r1,r0
     63e:	41 a8       	addi r1,4
     640:	0d 0f       	ldli r13,-16
     642:	d0 f0       	ldw r0,r13
     644:	c0 ab       	addi r0,-4
     646:	02 e0       	mov r2,r0
     648:	21 f5       	stw r1,r2
     64a:	0d 0f       	ldli r13,-16
     64c:	d0 f0       	ldw r0,r13
     64e:	c0 ab       	addi r0,-4
     650:	03 e0       	mov r3,r0
     652:	31 f0       	ldw r1,r3
     654:	0d 0f       	ldli r13,-16
     656:	d0 f0       	ldw r0,r13
     658:	60 ab       	addi r0,-10
     65a:	02 e0       	mov r2,r0
     65c:	20 f2       	ldhu r0,r2
     65e:	13 e0       	mov r3,r1
     660:	30 f6       	sth r0,r3
     662:	47 0f       	ldli r7,-12
     664:	7d f0       	ldw r13,r7
     666:	cd a8       	addi r13,12
     668:	7d f5       	stw r13,r7
     66a:	07 0f       	ldli r7,-16
     66c:	0d 4c       	ldfpz_inc r13,0
     66e:	7d f5       	stw r13,r7
     670:	0e f8       	rts
     672:	07 0f       	ldli r7,-16
     674:	7d f0       	ldw r13,r7
     676:	fd 5f       	stfpz_dec r13,-1
     678:	47 0f       	ldli r7,-12
     67a:	7d f0       	ldw r13,r7
     67c:	07 0f       	ldli r7,-16
     67e:	7d f5       	stw r13,r7
     680:	47 0f       	ldli r7,-12
     682:	7d f0       	ldw r13,r7
     684:	4d ab       	addi r13,-12
     686:	7d f5       	stw r13,r7
     688:	0d 0f       	ldli r13,-16
     68a:	d0 f0       	ldw r0,r13
     68c:	80 ab       	addi r0,-8
     68e:	04 e0       	mov r4,r0
     690:	41 f5       	stw r1,r4
     692:	0d 0f       	ldli r13,-16
     694:	d0 f0       	ldw r0,r13
     696:	70 ab       	addi r0,-9
     698:	01 e0       	mov r1,r0
     69a:	12 f7       	stb r2,r1
     69c:	0d 0f       	ldli r13,-16
     69e:	d0 f0       	ldw r0,r13
     6a0:	60 ab       	addi r0,-10
     6a2:	02 e0       	mov r2,r0
     6a4:	23 f7       	stb r3,r2
     6a6:	0d 0f       	ldli r13,-16
     6a8:	d0 f0       	ldw r0,r13
     6aa:	80 ab       	addi r0,-8
     6ac:	04 e0       	mov r4,r0
     6ae:	40 f0       	ldw r0,r4
     6b0:	01 e0       	mov r1,r0
     6b2:	10 f0       	ldw r0,r1
     6b4:	01 e0       	mov r1,r0
     6b6:	61 a8       	addi r1,6
     6b8:	0d 0f       	ldli r13,-16
     6ba:	d0 f0       	ldw r0,r13
     6bc:	c0 ab       	addi r0,-4
     6be:	02 e0       	mov r2,r0
     6c0:	21 f5       	stw r1,r2
     6c2:	0d 0f       	ldli r13,-16
     6c4:	d0 f0       	ldw r0,r13
     6c6:	70 ab       	addi r0,-9
     6c8:	04 e0       	mov r4,r0
     6ca:	40 f4       	ldbu r0,r4
     6cc:	f1 03       	ldli r1,63
     6ce:	10 e5       	and r0,r1
     6d0:	60 a4       	bset r0,0x6
     6d2:	01 e0       	mov r1,r0
     6d4:	0d 0f       	ldli r13,-16
     6d6:	d0 f0       	ldw r0,r13
     6d8:	c0 ab       	addi r0,-4
     6da:	02 e0       	mov r2,r0
     6dc:	20 f0       	ldw r0,r2
     6de:	04 e0       	mov r4,r0
     6e0:	41 f7       	stb r1,r4
     6e2:	0d 0f       	ldli r13,-16
     6e4:	d0 f0       	ldw r0,r13
     6e6:	80 ab       	addi r0,-8
     6e8:	01 e0       	mov r1,r0
     6ea:	10 f0       	ldw r0,r1
     6ec:	02 e0       	mov r2,r0
     6ee:	20 f0       	ldw r0,r2
     6f0:	01 e0       	mov r1,r0
     6f2:	71 a8       	addi r1,7
     6f4:	0d 0f       	ldli r13,-16
     6f6:	d0 f0       	ldw r0,r13
     6f8:	c0 ab       	addi r0,-4
     6fa:	04 e0       	mov r4,r0
     6fc:	41 f5       	stw r1,r4
     6fe:	0d 0f       	ldli r13,-16
     700:	d0 f0       	ldw r0,r13
     702:	c0 ab       	addi r0,-4
     704:	02 e0       	mov r2,r0
     706:	21 f0       	ldw r1,r2
     708:	0d 0f       	ldli r13,-16
     70a:	d0 f0       	ldw r0,r13
     70c:	60 ab       	addi r0,-10
     70e:	04 e0       	mov r4,r0
     710:	40 f4       	ldbu r0,r4
     712:	12 e0       	mov r2,r1
     714:	20 f7       	stb r0,r2
     716:	47 0f       	ldli r7,-12
     718:	7d f0       	ldw r13,r7
     71a:	cd a8       	addi r13,12
     71c:	7d f5       	stw r13,r7
     71e:	07 0f       	ldli r7,-16
     720:	0d 4c       	ldfpz_inc r13,0
     722:	7d f5       	stw r13,r7
     724:	0e f8       	rts
     726:	fe 5f       	stfpz_dec r14,-1
     728:	07 0f       	ldli r7,-16
     72a:	7d f0       	ldw r13,r7
     72c:	fd 5f       	stfpz_dec r13,-1
     72e:	47 0f       	ldli r7,-12
     730:	7d f0       	ldw r13,r7
     732:	07 0f       	ldli r7,-16
     734:	7d f5       	stw r13,r7
     736:	47 0f       	ldli r7,-12
     738:	7d f0       	ldw r13,r7
     73a:	0d ab       	addi r13,-16
     73c:	7d f5       	stw r13,r7
     73e:	0d 0f       	ldli r13,-16
     740:	d0 f0       	ldw r0,r13
     742:	80 ab       	addi r0,-8
     744:	04 e0       	mov r4,r0
     746:	41 f5       	stw r1,r4
     748:	0d 0f       	ldli r13,-16
     74a:	d0 f0       	ldw r0,r13
     74c:	70 ab       	addi r0,-9
     74e:	01 e0       	mov r1,r0
     750:	12 f7       	stb r2,r1
     752:	0d 0f       	ldli r13,-16
     754:	d0 f0       	ldw r0,r13
     756:	60 ab       	addi r0,-10
     758:	02 e0       	mov r2,r0
     75a:	23 f7       	stb r3,r2
     75c:	0d 0f       	ldli r13,-16
     75e:	d1 f0       	ldw r1,r13
     760:	c1 ab       	addi r1,-4
     762:	00 00       	ldli r0,0
     764:	14 e0       	mov r4,r1
     766:	40 f5       	stw r0,r4
     768:	0d 0f       	ldli r13,-16
     76a:	d1 f0       	ldw r1,r13
     76c:	c1 ab       	addi r1,-4
     76e:	00 00       	ldli r0,0
     770:	12 e0       	mov r2,r1
     772:	20 f5       	stw r0,r2
     774:	51 ac       	jmpi 81
     776:	0d 0f       	ldli r13,-16
     778:	d0 f0       	ldw r0,r13
     77a:	c0 ab       	addi r0,-4
     77c:	04 e0       	mov r4,r0
     77e:	40 f0       	ldw r0,r4
     780:	01 e0       	mov r1,r0
     782:	0d 0f       	ldli r13,-16
     784:	d0 f0       	ldw r0,r13
     786:	70 ab       	addi r0,-9
     788:	02 e0       	mov r2,r0
     78a:	20 f4       	ldbu r0,r2
     78c:	10 e1       	add r0,r1
     78e:	04 e0       	mov r4,r0
     790:	0d 0f       	ldli r13,-16
     792:	d0 f0       	ldw r0,r13
     794:	60 ab       	addi r0,-10
     796:	01 e0       	mov r1,r0
     798:	10 f4       	ldbu r0,r1
     79a:	82 01       	ldli r2,24
     79c:	20 a0       	sl r0,r2
     79e:	81 01       	ldli r1,24
     7a0:	10 a2       	sr r0,r1
     7a2:	a2 00       	ldli r2,10
     7a4:	03 10       	ldhi r3,0
     7a6:	03 20       	ldliu r3,0x0
     7a8:	83 a1       	sli r3,0x8
     7aa:	73 20       	ldliu r3,0x7
     7ac:	83 a1       	sli r3,0x8
     7ae:	93 25       	ldliu r3,0x59
     7b0:	01 e0       	mov r1,r0
     7b2:	03 ee       	jsr r3
     7b4:	03 e0       	mov r3,r0
     7b6:	0d 0f       	ldli r13,-16
     7b8:	d0 f0       	ldw r0,r13
     7ba:	80 ab       	addi r0,-8
     7bc:	02 e0       	mov r2,r0
     7be:	20 f0       	ldw r0,r2
     7c0:	01 e0       	mov r1,r0
     7c2:	42 e0       	mov r2,r4
     7c4:	00 10       	ldhi r0,0
     7c6:	00 20       	ldliu r0,0x0
     7c8:	80 a1       	sli r0,0x8
     7ca:	30 20       	ldliu r0,0x3
     7cc:	80 a1       	sli r0,0x8
     7ce:	90 23       	ldliu r0,0x39
     7d0:	00 ee       	jsr r0
     7d2:	0d 0f       	ldli r13,-16
     7d4:	d4 f0       	ldw r4,r13
     7d6:	64 ab       	addi r4,-10
     7d8:	0d 0f       	ldli r13,-16
     7da:	d0 f0       	ldw r0,r13
     7dc:	60 ab       	addi r0,-10
     7de:	01 e0       	mov r1,r0
     7e0:	10 f4       	ldbu r0,r1
     7e2:	82 01       	ldli r2,24
     7e4:	20 a0       	sl r0,r2
     7e6:	81 01       	ldli r1,24
     7e8:	10 a2       	sr r0,r1
     7ea:	a2 00       	ldli r2,10
     7ec:	03 10       	ldhi r3,0
     7ee:	03 20       	ldliu r3,0x0
     7f0:	83 a1       	sli r3,0x8
     7f2:	73 20       	ldliu r3,0x7
     7f4:	83 a1       	sli r3,0x8
     7f6:	63 24       	ldliu r3,0x46
     7f8:	01 e0       	mov r1,r0
     7fa:	03 ee       	jsr r3
     7fc:	42 e0       	mov r2,r4
     7fe:	20 f7       	stb r0,r2
     800:	0d 0f       	ldli r13,-16
     802:	d1 f0       	ldw r1,r13
     804:	c1 ab       	addi r1,-4
     806:	0d 0f       	ldli r13,-16
     808:	d0 f0       	ldw r0,r13
     80a:	c0 ab       	addi r0,-4
     80c:	04 e0       	mov r4,r0
     80e:	40 f0       	ldw r0,r4
     810:	10 a8       	addi r0,1
     812:	12 e0       	mov r2,r1
     814:	20 f5       	stw r0,r2
     816:	0d 0f       	ldli r13,-16
     818:	d0 f0       	ldw r0,r13
     81a:	80 ab       	addi r0,-8
     81c:	04 e0       	mov r4,r0
     81e:	40 f0       	ldw r0,r4
     820:	40 a8       	addi r0,4
     822:	01 e0       	mov r1,r0
     824:	10 f4       	ldbu r0,r1
     826:	82 01       	ldli r2,24
     828:	20 a0       	sl r0,r2
     82a:	84 01       	ldli r4,24
     82c:	40 a2       	sr r0,r4
     82e:	3d 00       	ldli r13,3
     830:	d0 b4       	cmpu_gt r0,r13
     832:	12 9c       	jmpi_ct 18
     834:	0d 0f       	ldli r13,-16
     836:	d0 f0       	ldw r0,r13
     838:	80 ab       	addi r0,-8
     83a:	01 e0       	mov r1,r0
     83c:	10 f0       	ldw r0,r1
     83e:	40 a8       	addi r0,4
     840:	02 e0       	mov r2,r0
     842:	20 f4       	ldbu r0,r2
     844:	04 e0       	mov r4,r0
     846:	81 01       	ldli r1,24
     848:	14 a0       	sl r4,r1
     84a:	c4 7b       	stfpy r4,-4
     84c:	c2 6b       	ldfpy r2,-4
     84e:	84 01       	ldli r4,24
     850:	42 a2       	sr r2,r4
     852:	c2 7b       	stfpy r2,-4
     854:	03 ac       	jmpi 3
     856:	30 00       	ldli r0,3
     858:	c0 7b       	stfpy r0,-4
     85a:	0d 0f       	ldli r13,-16
     85c:	d0 f0       	ldw r0,r13
     85e:	c0 ab       	addi r0,-4
     860:	01 e0       	mov r1,r0
     862:	10 f0       	ldw r0,r1
     864:	c2 6b       	ldfpy r2,-4
     866:	02 b2       	cmp_gt r2,r0
     868:	87 9f       	jmpi_ct -121
     86a:	47 0f       	ldli r7,-12
     86c:	7d f0       	ldw r13,r7
     86e:	06 01       	ldli r6,16
     870:	6d e1       	add r13,r6
     872:	7d f5       	stw r13,r7
     874:	07 0f       	ldli r7,-16
     876:	0d 4c       	ldfpz_inc r13,0
     878:	7d f5       	stw r13,r7
     87a:	0e 4c       	ldfpz_inc r14,0
     87c:	0e f8       	rts
     87e:	fe 5f       	stfpz_dec r14,-1
     880:	07 0f       	ldli r7,-16
     882:	7d f0       	ldw r13,r7
     884:	fd 5f       	stfpz_dec r13,-1
     886:	47 0f       	ldli r7,-12
     888:	7d f0       	ldw r13,r7
     88a:	07 0f       	ldli r7,-16
     88c:	7d f5       	stw r13,r7
     88e:	47 0f       	ldli r7,-12
     890:	7d f0       	ldw r13,r7
     892:	0d ab       	addi r13,-16
     894:	7d f5       	stw r13,r7
     896:	0d 0f       	ldli r13,-16
     898:	d0 f0       	ldw r0,r13
     89a:	80 ab       	addi r0,-8
     89c:	04 e0       	mov r4,r0
     89e:	41 f5       	stw r1,r4
     8a0:	0d 0f       	ldli r13,-16
     8a2:	d0 f0       	ldw r0,r13
     8a4:	70 ab       	addi r0,-9
     8a6:	01 e0       	mov r1,r0
     8a8:	12 f7       	stb r2,r1
     8aa:	0d 0f       	ldli r13,-16
     8ac:	d0 f0       	ldw r0,r13
     8ae:	40 ab       	addi r0,-12
     8b0:	02 e0       	mov r2,r0
     8b2:	23 f6       	sth r3,r2
     8b4:	0d 0f       	ldli r13,-16
     8b6:	d1 f0       	ldw r1,r13
     8b8:	c1 ab       	addi r1,-4
     8ba:	00 00       	ldli r0,0
     8bc:	14 e0       	mov r4,r1
     8be:	40 f5       	stw r0,r4
     8c0:	0d 0f       	ldli r13,-16
     8c2:	d1 f0       	ldw r1,r13
     8c4:	c1 ab       	addi r1,-4
     8c6:	00 00       	ldli r0,0
     8c8:	12 e0       	mov r2,r1
     8ca:	20 f5       	stw r0,r2
     8cc:	51 ac       	jmpi 81
     8ce:	0d 0f       	ldli r13,-16
     8d0:	d0 f0       	ldw r0,r13
     8d2:	c0 ab       	addi r0,-4
     8d4:	04 e0       	mov r4,r0
     8d6:	40 f0       	ldw r0,r4
     8d8:	01 e0       	mov r1,r0
     8da:	0d 0f       	ldli r13,-16
     8dc:	d0 f0       	ldw r0,r13
     8de:	70 ab       	addi r0,-9
     8e0:	02 e0       	mov r2,r0
     8e2:	20 f4       	ldbu r0,r2
     8e4:	10 e1       	add r0,r1
     8e6:	04 e0       	mov r4,r0
     8e8:	0d 0f       	ldli r13,-16
     8ea:	d0 f0       	ldw r0,r13
     8ec:	40 ab       	addi r0,-12
     8ee:	01 e0       	mov r1,r0
     8f0:	10 f2       	ldhu r0,r1
     8f2:	02 01       	ldli r2,16
     8f4:	20 a0       	sl r0,r2
     8f6:	01 01       	ldli r1,16
     8f8:	10 a2       	sr r0,r1
     8fa:	a2 00       	ldli r2,10
     8fc:	03 10       	ldhi r3,0
     8fe:	03 20       	ldliu r3,0x0
     900:	83 a1       	sli r3,0x8
     902:	73 20       	ldliu r3,0x7
     904:	83 a1       	sli r3,0x8
     906:	93 25       	ldliu r3,0x59
     908:	01 e0       	mov r1,r0
     90a:	03 ee       	jsr r3
     90c:	03 e0       	mov r3,r0
     90e:	0d 0f       	ldli r13,-16
     910:	d0 f0       	ldw r0,r13
     912:	80 ab       	addi r0,-8
     914:	02 e0       	mov r2,r0
     916:	20 f0       	ldw r0,r2
     918:	01 e0       	mov r1,r0
     91a:	42 e0       	mov r2,r4
     91c:	00 10       	ldhi r0,0
     91e:	00 20       	ldliu r0,0x0
     920:	80 a1       	sli r0,0x8
     922:	30 20       	ldliu r0,0x3
     924:	80 a1       	sli r0,0x8
     926:	90 23       	ldliu r0,0x39
     928:	00 ee       	jsr r0
     92a:	0d 0f       	ldli r13,-16
     92c:	d4 f0       	ldw r4,r13
     92e:	44 ab       	addi r4,-12
     930:	0d 0f       	ldli r13,-16
     932:	d0 f0       	ldw r0,r13
     934:	40 ab       	addi r0,-12
     936:	01 e0       	mov r1,r0
     938:	10 f2       	ldhu r0,r1
     93a:	02 01       	ldli r2,16
     93c:	20 a0       	sl r0,r2
     93e:	01 01       	ldli r1,16
     940:	10 a2       	sr r0,r1
     942:	a2 00       	ldli r2,10
     944:	03 10       	ldhi r3,0
     946:	03 20       	ldliu r3,0x0
     948:	83 a1       	sli r3,0x8
     94a:	73 20       	ldliu r3,0x7
     94c:	83 a1       	sli r3,0x8
     94e:	63 24       	ldliu r3,0x46
     950:	01 e0       	mov r1,r0
     952:	03 ee       	jsr r3
     954:	42 e0       	mov r2,r4
     956:	20 f6       	sth r0,r2
     958:	0d 0f       	ldli r13,-16
     95a:	d1 f0       	ldw r1,r13
     95c:	c1 ab       	addi r1,-4
     95e:	0d 0f       	ldli r13,-16
     960:	d0 f0       	ldw r0,r13
     962:	c0 ab       	addi r0,-4
     964:	04 e0       	mov r4,r0
     966:	40 f0       	ldw r0,r4
     968:	10 a8       	addi r0,1
     96a:	12 e0       	mov r2,r1
     96c:	20 f5       	stw r0,r2
     96e:	0d 0f       	ldli r13,-16
     970:	d0 f0       	ldw r0,r13
     972:	80 ab       	addi r0,-8
     974:	04 e0       	mov r4,r0
     976:	40 f0       	ldw r0,r4
     978:	40 a8       	addi r0,4
     97a:	01 e0       	mov r1,r0
     97c:	10 f4       	ldbu r0,r1
     97e:	82 01       	ldli r2,24
     980:	20 a0       	sl r0,r2
     982:	84 01       	ldli r4,24
     984:	40 a2       	sr r0,r4
     986:	5d 00       	ldli r13,5
     988:	d0 b4       	cmpu_gt r0,r13
     98a:	12 9c       	jmpi_ct 18
     98c:	0d 0f       	ldli r13,-16
     98e:	d0 f0       	ldw r0,r13
     990:	80 ab       	addi r0,-8
     992:	01 e0       	mov r1,r0
     994:	10 f0       	ldw r0,r1
     996:	40 a8       	addi r0,4
     998:	02 e0       	mov r2,r0
     99a:	20 f4       	ldbu r0,r2
     99c:	04 e0       	mov r4,r0
     99e:	81 01       	ldli r1,24
     9a0:	14 a0       	sl r4,r1
     9a2:	c4 7b       	stfpy r4,-4
     9a4:	c2 6b       	ldfpy r2,-4
     9a6:	84 01       	ldli r4,24
     9a8:	42 a2       	sr r2,r4
     9aa:	c2 7b       	stfpy r2,-4
     9ac:	03 ac       	jmpi 3
     9ae:	50 00       	ldli r0,5
     9b0:	c0 7b       	stfpy r0,-4
     9b2:	0d 0f       	ldli r13,-16
     9b4:	d0 f0       	ldw r0,r13
     9b6:	c0 ab       	addi r0,-4
     9b8:	01 e0       	mov r1,r0
     9ba:	10 f0       	ldw r0,r1
     9bc:	c2 6b       	ldfpy r2,-4
     9be:	02 b2       	cmp_gt r2,r0
     9c0:	87 9f       	jmpi_ct -121
     9c2:	47 0f       	ldli r7,-12
     9c4:	7d f0       	ldw r13,r7
     9c6:	06 01       	ldli r6,16
     9c8:	6d e1       	add r13,r6
     9ca:	7d f5       	stw r13,r7
     9cc:	07 0f       	ldli r7,-16
     9ce:	0d 4c       	ldfpz_inc r13,0
     9d0:	7d f5       	stw r13,r7
     9d2:	0e 4c       	ldfpz_inc r14,0
     9d4:	0e f8       	rts
     9d6:	fe 5f       	stfpz_dec r14,-1
     9d8:	07 0f       	ldli r7,-16
     9da:	7d f0       	ldw r13,r7
     9dc:	fd 5f       	stfpz_dec r13,-1
     9de:	47 0f       	ldli r7,-12
     9e0:	7d f0       	ldw r13,r7
     9e2:	07 0f       	ldli r7,-16
     9e4:	7d f5       	stw r13,r7
     9e6:	47 0f       	ldli r7,-12
     9e8:	7d f0       	ldw r13,r7
     9ea:	c6 0e       	ldli r6,-20
     9ec:	6d e1       	add r13,r6
     9ee:	7d f5       	stw r13,r7
     9f0:	0d 0f       	ldli r13,-16
     9f2:	d0 f0       	ldw r0,r13
     9f4:	80 ab       	addi r0,-8
     9f6:	04 e0       	mov r4,r0
     9f8:	41 f5       	stw r1,r4
     9fa:	0d 0f       	ldli r13,-16
     9fc:	d0 f0       	ldw r0,r13
     9fe:	70 ab       	addi r0,-9
     a00:	01 e0       	mov r1,r0
     a02:	12 f7       	stb r2,r1
     a04:	0d 0f       	ldli r13,-16
     a06:	d0 f0       	ldw r0,r13
     a08:	00 ab       	addi r0,-16
     a0a:	02 e0       	mov r2,r0
     a0c:	23 f5       	stw r3,r2
     a0e:	0d 0f       	ldli r13,-16
     a10:	d1 f0       	ldw r1,r13
     a12:	c1 ab       	addi r1,-4
     a14:	00 00       	ldli r0,0
     a16:	14 e0       	mov r4,r1
     a18:	40 f5       	stw r0,r4
     a1a:	0d 0f       	ldli r13,-16
     a1c:	d1 f0       	ldw r1,r13
     a1e:	c1 ab       	addi r1,-4
     a20:	00 00       	ldli r0,0
     a22:	12 e0       	mov r2,r1
     a24:	20 f5       	stw r0,r2
     a26:	49 ac       	jmpi 73
     a28:	0d 0f       	ldli r13,-16
     a2a:	d0 f0       	ldw r0,r13
     a2c:	c0 ab       	addi r0,-4
     a2e:	04 e0       	mov r4,r0
     a30:	40 f0       	ldw r0,r4
     a32:	01 e0       	mov r1,r0
     a34:	0d 0f       	ldli r13,-16
     a36:	d0 f0       	ldw r0,r13
     a38:	70 ab       	addi r0,-9
     a3a:	02 e0       	mov r2,r0
     a3c:	20 f4       	ldbu r0,r2
     a3e:	10 e1       	add r0,r1
     a40:	04 e0       	mov r4,r0
     a42:	0d 0f       	ldli r13,-16
     a44:	d0 f0       	ldw r0,r13
     a46:	00 ab       	addi r0,-16
     a48:	01 e0       	mov r1,r0
     a4a:	10 f0       	ldw r0,r1
     a4c:	a2 00       	ldli r2,10
     a4e:	03 10       	ldhi r3,0
     a50:	03 20       	ldliu r3,0x0
     a52:	83 a1       	sli r3,0x8
     a54:	73 20       	ldliu r3,0x7
     a56:	83 a1       	sli r3,0x8
     a58:	93 25       	ldliu r3,0x59
     a5a:	01 e0       	mov r1,r0
     a5c:	03 ee       	jsr r3
     a5e:	03 e0       	mov r3,r0
     a60:	0d 0f       	ldli r13,-16
     a62:	d0 f0       	ldw r0,r13
     a64:	80 ab       	addi r0,-8
     a66:	02 e0       	mov r2,r0
     a68:	20 f0       	ldw r0,r2
     a6a:	01 e0       	mov r1,r0
     a6c:	42 e0       	mov r2,r4
     a6e:	00 10       	ldhi r0,0
     a70:	00 20       	ldliu r0,0x0
     a72:	80 a1       	sli r0,0x8
     a74:	30 20       	ldliu r0,0x3
     a76:	80 a1       	sli r0,0x8
     a78:	90 23       	ldliu r0,0x39
     a7a:	00 ee       	jsr r0
     a7c:	0d 0f       	ldli r13,-16
     a7e:	d4 f0       	ldw r4,r13
     a80:	04 ab       	addi r4,-16
     a82:	0d 0f       	ldli r13,-16
     a84:	d0 f0       	ldw r0,r13
     a86:	00 ab       	addi r0,-16
     a88:	01 e0       	mov r1,r0
     a8a:	10 f0       	ldw r0,r1
     a8c:	a2 00       	ldli r2,10
     a8e:	03 10       	ldhi r3,0
     a90:	03 20       	ldliu r3,0x0
     a92:	83 a1       	sli r3,0x8
     a94:	73 20       	ldliu r3,0x7
     a96:	83 a1       	sli r3,0x8
     a98:	63 24       	ldliu r3,0x46
     a9a:	01 e0       	mov r1,r0
     a9c:	03 ee       	jsr r3
     a9e:	42 e0       	mov r2,r4
     aa0:	20 f5       	stw r0,r2
     aa2:	0d 0f       	ldli r13,-16
     aa4:	d1 f0       	ldw r1,r13
     aa6:	c1 ab       	addi r1,-4
     aa8:	0d 0f       	ldli r13,-16
     aaa:	d0 f0       	ldw r0,r13
     aac:	c0 ab       	addi r0,-4
     aae:	04 e0       	mov r4,r0
     ab0:	40 f0       	ldw r0,r4
     ab2:	10 a8       	addi r0,1
     ab4:	12 e0       	mov r2,r1
     ab6:	20 f5       	stw r0,r2
     ab8:	0d 0f       	ldli r13,-16
     aba:	d0 f0       	ldw r0,r13
     abc:	80 ab       	addi r0,-8
     abe:	04 e0       	mov r4,r0
     ac0:	40 f0       	ldw r0,r4
     ac2:	40 a8       	addi r0,4
     ac4:	01 e0       	mov r1,r0
     ac6:	10 f4       	ldbu r0,r1
     ac8:	82 01       	ldli r2,24
     aca:	20 a0       	sl r0,r2
     acc:	84 01       	ldli r4,24
     ace:	40 a2       	sr r0,r4
     ad0:	ad 00       	ldli r13,10
     ad2:	d0 b4       	cmpu_gt r0,r13
     ad4:	12 9c       	jmpi_ct 18
     ad6:	0d 0f       	ldli r13,-16
     ad8:	d0 f0       	ldw r0,r13
     ada:	80 ab       	addi r0,-8
     adc:	01 e0       	mov r1,r0
     ade:	10 f0       	ldw r0,r1
     ae0:	40 a8       	addi r0,4
     ae2:	02 e0       	mov r2,r0
     ae4:	20 f4       	ldbu r0,r2
     ae6:	04 e0       	mov r4,r0
     ae8:	81 01       	ldli r1,24
     aea:	14 a0       	sl r4,r1
     aec:	b4 7b       	stfpy r4,-5
     aee:	b2 6b       	ldfpy r2,-5
     af0:	84 01       	ldli r4,24
     af2:	42 a2       	sr r2,r4
     af4:	b2 7b       	stfpy r2,-5
     af6:	03 ac       	jmpi 3
     af8:	a0 00       	ldli r0,10
     afa:	b0 7b       	stfpy r0,-5
     afc:	0d 0f       	ldli r13,-16
     afe:	d0 f0       	ldw r0,r13
     b00:	c0 ab       	addi r0,-4
     b02:	01 e0       	mov r1,r0
     b04:	10 f0       	ldw r0,r1
     b06:	b2 6b       	ldfpy r2,-5
     b08:	02 b2       	cmp_gt r2,r0
     b0a:	8f 9f       	jmpi_ct -113
     b0c:	47 0f       	ldli r7,-12
     b0e:	7d f0       	ldw r13,r7
     b10:	46 01       	ldli r6,20
     b12:	6d e1       	add r13,r6
     b14:	7d f5       	stw r13,r7
     b16:	07 0f       	ldli r7,-16
     b18:	0d 4c       	ldfpz_inc r13,0
     b1a:	7d f5       	stw r13,r7
     b1c:	0e 4c       	ldfpz_inc r14,0
     b1e:	0e f8       	rts
     b20:	fe 5f       	stfpz_dec r14,-1
     b22:	07 0f       	ldli r7,-16
     b24:	7d f0       	ldw r13,r7
     b26:	fd 5f       	stfpz_dec r13,-1
     b28:	47 0f       	ldli r7,-12
     b2a:	7d f0       	ldw r13,r7
     b2c:	07 0f       	ldli r7,-16
     b2e:	7d f5       	stw r13,r7
     b30:	47 0f       	ldli r7,-12
     b32:	7d f0       	ldw r13,r7
     b34:	8d ab       	addi r13,-8
     b36:	7d f5       	stw r13,r7
     b38:	0d 0f       	ldli r13,-16
     b3a:	d0 f0       	ldw r0,r13
     b3c:	c0 ab       	addi r0,-4
     b3e:	04 e0       	mov r4,r0
     b40:	41 f5       	stw r1,r4
     b42:	0d 0f       	ldli r13,-16
     b44:	d0 f0       	ldw r0,r13
     b46:	b0 ab       	addi r0,-5
     b48:	01 e0       	mov r1,r0
     b4a:	12 f7       	stb r2,r1
     b4c:	0d 0f       	ldli r13,-16
     b4e:	d0 f0       	ldw r0,r13
     b50:	a0 ab       	addi r0,-6
     b52:	02 e0       	mov r2,r0
     b54:	23 f7       	stb r3,r2
     b56:	0d 0f       	ldli r13,-16
     b58:	d0 f0       	ldw r0,r13
     b5a:	a0 ab       	addi r0,-6
     b5c:	04 e0       	mov r4,r0
     b5e:	40 f4       	ldbu r0,r4
     b60:	f1 00       	ldli r1,15
     b62:	10 e5       	and r0,r1
     b64:	03 e0       	mov r3,r0
     b66:	0d 0f       	ldli r13,-16
     b68:	d0 f0       	ldw r0,r13
     b6a:	c0 ab       	addi r0,-4
     b6c:	02 e0       	mov r2,r0
     b6e:	21 f0       	ldw r1,r2
     b70:	0d 0f       	ldli r13,-16
     b72:	d0 f0       	ldw r0,r13
     b74:	b0 ab       	addi r0,-5
     b76:	04 e0       	mov r4,r0
     b78:	40 f4       	ldbu r0,r4
     b7a:	02 e0       	mov r2,r0
     b7c:	00 10       	ldhi r0,0
     b7e:	00 20       	ldliu r0,0x0
     b80:	80 a1       	sli r0,0x8
     b82:	30 20       	ldliu r0,0x3
     b84:	80 a1       	sli r0,0x8
     b86:	90 23       	ldliu r0,0x39
     b88:	00 ee       	jsr r0
     b8a:	0d 0f       	ldli r13,-16
     b8c:	d0 f0       	ldw r0,r13
     b8e:	b0 ab       	addi r0,-5
     b90:	01 e0       	mov r1,r0
     b92:	10 f4       	ldbu r0,r1
     b94:	10 a8       	addi r0,1
     b96:	02 e0       	mov r2,r0
     b98:	0d 0f       	ldli r13,-16
     b9a:	d0 f0       	ldw r0,r13
     b9c:	a0 ab       	addi r0,-6
     b9e:	04 e0       	mov r4,r0
     ba0:	40 f4       	ldbu r0,r4
     ba2:	81 01       	ldli r1,24
     ba4:	10 a0       	sl r0,r1
     ba6:	84 01       	ldli r4,24
     ba8:	40 a2       	sr r0,r4
     baa:	40 a3       	sri r0,0x4
     bac:	03 e0       	mov r3,r0
     bae:	0d 0f       	ldli r13,-16
     bb0:	d0 f0       	ldw r0,r13
     bb2:	c0 ab       	addi r0,-4
     bb4:	01 e0       	mov r1,r0
     bb6:	10 f0       	ldw r0,r1
     bb8:	01 e0       	mov r1,r0
     bba:	00 10       	ldhi r0,0
     bbc:	00 20       	ldliu r0,0x0
     bbe:	80 a1       	sli r0,0x8
     bc0:	30 20       	ldliu r0,0x3
     bc2:	80 a1       	sli r0,0x8
     bc4:	90 23       	ldliu r0,0x39
     bc6:	00 ee       	jsr r0
     bc8:	47 0f       	ldli r7,-12
     bca:	7d f0       	ldw r13,r7
     bcc:	8d a8       	addi r13,8
     bce:	7d f5       	stw r13,r7
     bd0:	07 0f       	ldli r7,-16
     bd2:	0d 4c       	ldfpz_inc r13,0
     bd4:	7d f5       	stw r13,r7
     bd6:	0e 4c       	ldfpz_inc r14,0
     bd8:	0e f8       	rts
     bda:	fe 5f       	stfpz_dec r14,-1
     bdc:	07 0f       	ldli r7,-16
     bde:	7d f0       	ldw r13,r7
     be0:	fd 5f       	stfpz_dec r13,-1
     be2:	47 0f       	ldli r7,-12
     be4:	7d f0       	ldw r13,r7
     be6:	07 0f       	ldli r7,-16
     be8:	7d f5       	stw r13,r7
     bea:	47 0f       	ldli r7,-12
     bec:	7d f0       	ldw r13,r7
     bee:	4d ab       	addi r13,-12
     bf0:	7d f5       	stw r13,r7
     bf2:	0d 0f       	ldli r13,-16
     bf4:	d0 f0       	ldw r0,r13
     bf6:	80 ab       	addi r0,-8
     bf8:	04 e0       	mov r4,r0
     bfa:	41 f5       	stw r1,r4
     bfc:	0d 0f       	ldli r13,-16
     bfe:	d0 f0       	ldw r0,r13
     c00:	70 ab       	addi r0,-9
     c02:	01 e0       	mov r1,r0
     c04:	12 f7       	stb r2,r1
     c06:	0d 0f       	ldli r13,-16
     c08:	d0 f0       	ldw r0,r13
     c0a:	40 ab       	addi r0,-12
     c0c:	02 e0       	mov r2,r0
     c0e:	23 f6       	sth r3,r2
     c10:	0d 0f       	ldli r13,-16
     c12:	d1 f0       	ldw r1,r13
     c14:	c1 ab       	addi r1,-4
     c16:	00 00       	ldli r0,0
     c18:	13 e0       	mov r3,r1
     c1a:	30 f5       	stw r0,r3
     c1c:	0d 0f       	ldli r13,-16
     c1e:	d1 f0       	ldw r1,r13
     c20:	c1 ab       	addi r1,-4
     c22:	00 00       	ldli r0,0
     c24:	14 e0       	mov r4,r1
     c26:	40 f5       	stw r0,r4
     c28:	3c ac       	jmpi 60
     c2a:	0d 0f       	ldli r13,-16
     c2c:	d0 f0       	ldw r0,r13
     c2e:	c0 ab       	addi r0,-4
     c30:	01 e0       	mov r1,r0
     c32:	10 f0       	ldw r0,r1
     c34:	01 e0       	mov r1,r0
     c36:	0d 0f       	ldli r13,-16
     c38:	d0 f0       	ldw r0,r13
     c3a:	70 ab       	addi r0,-9
     c3c:	02 e0       	mov r2,r0
     c3e:	20 f4       	ldbu r0,r2
     c40:	10 e1       	add r0,r1
     c42:	02 e0       	mov r2,r0
     c44:	0d 0f       	ldli r13,-16
     c46:	d0 f0       	ldw r0,r13
     c48:	40 ab       	addi r0,-12
     c4a:	03 e0       	mov r3,r0
     c4c:	30 f2       	ldhu r0,r3
     c4e:	01 e0       	mov r1,r0
     c50:	04 01       	ldli r4,16
     c52:	41 a0       	sl r1,r4
     c54:	00 01       	ldli r0,16
     c56:	01 a2       	sr r1,r0
     c58:	0d 0f       	ldli r13,-16
     c5a:	d0 f0       	ldw r0,r13
     c5c:	c0 ab       	addi r0,-4
     c5e:	03 e0       	mov r3,r0
     c60:	30 f0       	ldw r0,r3
     c62:	20 a1       	sli r0,0x2
     c64:	14 e0       	mov r4,r1
     c66:	04 e8       	sra r4,r0
     c68:	40 e0       	mov r0,r4
     c6a:	f1 00       	ldli r1,15
     c6c:	10 e5       	and r0,r1
     c6e:	03 e0       	mov r3,r0
     c70:	0d 0f       	ldli r13,-16
     c72:	d0 f0       	ldw r0,r13
     c74:	80 ab       	addi r0,-8
     c76:	04 e0       	mov r4,r0
     c78:	40 f0       	ldw r0,r4
     c7a:	01 e0       	mov r1,r0
     c7c:	00 10       	ldhi r0,0
     c7e:	00 20       	ldliu r0,0x0
     c80:	80 a1       	sli r0,0x8
     c82:	30 20       	ldliu r0,0x3
     c84:	80 a1       	sli r0,0x8
     c86:	90 23       	ldliu r0,0x39
     c88:	00 ee       	jsr r0
     c8a:	0d 0f       	ldli r13,-16
     c8c:	d1 f0       	ldw r1,r13
     c8e:	c1 ab       	addi r1,-4
     c90:	0d 0f       	ldli r13,-16
     c92:	d0 f0       	ldw r0,r13
     c94:	c0 ab       	addi r0,-4
     c96:	02 e0       	mov r2,r0
     c98:	20 f0       	ldw r0,r2
     c9a:	10 a8       	addi r0,1
     c9c:	13 e0       	mov r3,r1
     c9e:	30 f5       	stw r0,r3
     ca0:	0d 0f       	ldli r13,-16
     ca2:	d0 f0       	ldw r0,r13
     ca4:	c0 ab       	addi r0,-4
     ca6:	04 e0       	mov r4,r0
     ca8:	40 f0       	ldw r0,r4
     caa:	30 38       	cmpi_gt r0,3
     cac:	bf 8f       	jmpi_cf -65
     cae:	47 0f       	ldli r7,-12
     cb0:	7d f0       	ldw r13,r7
     cb2:	cd a8       	addi r13,12
     cb4:	7d f5       	stw r13,r7
     cb6:	07 0f       	ldli r7,-16
     cb8:	0d 4c       	ldfpz_inc r13,0
     cba:	7d f5       	stw r13,r7
     cbc:	0e 4c       	ldfpz_inc r14,0
     cbe:	0e f8       	rts
     cc0:	fe 5f       	stfpz_dec r14,-1
     cc2:	07 0f       	ldli r7,-16
     cc4:	7d f0       	ldw r13,r7
     cc6:	fd 5f       	stfpz_dec r13,-1
     cc8:	47 0f       	ldli r7,-12
     cca:	7d f0       	ldw r13,r7
     ccc:	07 0f       	ldli r7,-16
     cce:	7d f5       	stw r13,r7
     cd0:	47 0f       	ldli r7,-12
     cd2:	7d f0       	ldw r13,r7
     cd4:	0d ab       	addi r13,-16
     cd6:	7d f5       	stw r13,r7
     cd8:	0d 0f       	ldli r13,-16
     cda:	d0 f0       	ldw r0,r13
     cdc:	80 ab       	addi r0,-8
     cde:	04 e0       	mov r4,r0
     ce0:	41 f5       	stw r1,r4
     ce2:	0d 0f       	ldli r13,-16
     ce4:	d0 f0       	ldw r0,r13
     ce6:	70 ab       	addi r0,-9
     ce8:	01 e0       	mov r1,r0
     cea:	12 f7       	stb r2,r1
     cec:	0d 0f       	ldli r13,-16
     cee:	d0 f0       	ldw r0,r13
     cf0:	00 ab       	addi r0,-16
     cf2:	02 e0       	mov r2,r0
     cf4:	23 f5       	stw r3,r2
     cf6:	0d 0f       	ldli r13,-16
     cf8:	d1 f0       	ldw r1,r13
     cfa:	c1 ab       	addi r1,-4
     cfc:	00 00       	ldli r0,0
     cfe:	13 e0       	mov r3,r1
     d00:	30 f5       	stw r0,r3
     d02:	0d 0f       	ldli r13,-16
     d04:	d1 f0       	ldw r1,r13
     d06:	c1 ab       	addi r1,-4
     d08:	00 00       	ldli r0,0
     d0a:	14 e0       	mov r4,r1
     d0c:	40 f5       	stw r0,r4
     d0e:	36 ac       	jmpi 54
     d10:	0d 0f       	ldli r13,-16
     d12:	d0 f0       	ldw r0,r13
     d14:	c0 ab       	addi r0,-4
     d16:	01 e0       	mov r1,r0
     d18:	10 f0       	ldw r0,r1
     d1a:	01 e0       	mov r1,r0
     d1c:	0d 0f       	ldli r13,-16
     d1e:	d0 f0       	ldw r0,r13
     d20:	70 ab       	addi r0,-9
     d22:	02 e0       	mov r2,r0
     d24:	20 f4       	ldbu r0,r2
     d26:	10 e1       	add r0,r1
     d28:	02 e0       	mov r2,r0
     d2a:	0d 0f       	ldli r13,-16
     d2c:	d0 f0       	ldw r0,r13
     d2e:	c0 ab       	addi r0,-4
     d30:	03 e0       	mov r3,r0
     d32:	30 f0       	ldw r0,r3
     d34:	01 e0       	mov r1,r0
     d36:	21 a1       	sli r1,0x2
     d38:	0d 0f       	ldli r13,-16
     d3a:	d0 f0       	ldw r0,r13
     d3c:	00 ab       	addi r0,-16
     d3e:	04 e0       	mov r4,r0
     d40:	40 f0       	ldw r0,r4
     d42:	10 a2       	sr r0,r1
     d44:	f1 00       	ldli r1,15
     d46:	10 e5       	and r0,r1
     d48:	03 e0       	mov r3,r0
     d4a:	0d 0f       	ldli r13,-16
     d4c:	d0 f0       	ldw r0,r13
     d4e:	80 ab       	addi r0,-8
     d50:	04 e0       	mov r4,r0
     d52:	40 f0       	ldw r0,r4
     d54:	01 e0       	mov r1,r0
     d56:	00 10       	ldhi r0,0
     d58:	00 20       	ldliu r0,0x0
     d5a:	80 a1       	sli r0,0x8
     d5c:	30 20       	ldliu r0,0x3
     d5e:	80 a1       	sli r0,0x8
     d60:	90 23       	ldliu r0,0x39
     d62:	00 ee       	jsr r0
     d64:	0d 0f       	ldli r13,-16
     d66:	d1 f0       	ldw r1,r13
     d68:	c1 ab       	addi r1,-4
     d6a:	0d 0f       	ldli r13,-16
     d6c:	d0 f0       	ldw r0,r13
     d6e:	c0 ab       	addi r0,-4
     d70:	02 e0       	mov r2,r0
     d72:	20 f0       	ldw r0,r2
     d74:	10 a8       	addi r0,1
     d76:	13 e0       	mov r3,r1
     d78:	30 f5       	stw r0,r3
     d7a:	0d 0f       	ldli r13,-16
     d7c:	d0 f0       	ldw r0,r13
     d7e:	c0 ab       	addi r0,-4
     d80:	04 e0       	mov r4,r0
     d82:	40 f0       	ldw r0,r4
     d84:	70 38       	cmpi_gt r0,7
     d86:	c5 8f       	jmpi_cf -59
     d88:	47 0f       	ldli r7,-12
     d8a:	7d f0       	ldw r13,r7
     d8c:	06 01       	ldli r6,16
     d8e:	6d e1       	add r13,r6
     d90:	7d f5       	stw r13,r7
     d92:	07 0f       	ldli r7,-16
     d94:	0d 4c       	ldfpz_inc r13,0
     d96:	7d f5       	stw r13,r7
     d98:	0e 4c       	ldfpz_inc r14,0
     d9a:	0e f8       	rts
     d9c:	07 0f       	ldli r7,-16
     d9e:	7d f0       	ldw r13,r7
     da0:	fd 5f       	stfpz_dec r13,-1
     da2:	47 0f       	ldli r7,-12
     da4:	7d f0       	ldw r13,r7
     da6:	07 0f       	ldli r7,-16
     da8:	7d f5       	stw r13,r7
     daa:	47 0f       	ldli r7,-12
     dac:	7d f0       	ldw r13,r7
     dae:	4d ab       	addi r13,-12
     db0:	7d f5       	stw r13,r7
     db2:	0d 0f       	ldli r13,-16
     db4:	d0 f0       	ldw r0,r13
     db6:	80 ab       	addi r0,-8
     db8:	03 e0       	mov r3,r0
     dba:	31 f5       	stw r1,r3
     dbc:	0d 0f       	ldli r13,-16
     dbe:	d0 f0       	ldw r0,r13
     dc0:	70 ab       	addi r0,-9
     dc2:	01 e0       	mov r1,r0
     dc4:	12 f7       	stb r2,r1
     dc6:	0d 0f       	ldli r13,-16
     dc8:	d0 f0       	ldw r0,r13
     dca:	80 ab       	addi r0,-8
     dcc:	02 e0       	mov r2,r0
     dce:	20 f0       	ldw r0,r2
     dd0:	03 e0       	mov r3,r0
     dd2:	30 f0       	ldw r0,r3
     dd4:	01 e0       	mov r1,r0
     dd6:	61 a8       	addi r1,6
     dd8:	0d 0f       	ldli r13,-16
     dda:	d0 f0       	ldw r0,r13
     ddc:	c0 ab       	addi r0,-4
     dde:	02 e0       	mov r2,r0
     de0:	21 f5       	stw r1,r2
     de2:	0d 0f       	ldli r13,-16
     de4:	d0 f0       	ldw r0,r13
     de6:	70 ab       	addi r0,-9
     de8:	03 e0       	mov r3,r0
     dea:	30 f4       	ldbu r0,r3
     dec:	f1 03       	ldli r1,63
     dee:	10 e5       	and r0,r1
     df0:	01 e0       	mov r1,r0
     df2:	00 0c       	ldli r0,-64
     df4:	10 e6       	or r0,r1
     df6:	01 e0       	mov r1,r0
     df8:	0d 0f       	ldli r13,-16
     dfa:	d0 f0       	ldw r0,r13
     dfc:	c0 ab       	addi r0,-4
     dfe:	02 e0       	mov r2,r0
     e00:	20 f0       	ldw r0,r2
     e02:	03 e0       	mov r3,r0
     e04:	31 f7       	stb r1,r3
     e06:	0d 0f       	ldli r13,-16
     e08:	d0 f0       	ldw r0,r13
     e0a:	80 ab       	addi r0,-8
     e0c:	01 e0       	mov r1,r0
     e0e:	10 f0       	ldw r0,r1
     e10:	02 e0       	mov r2,r0
     e12:	20 f0       	ldw r0,r2
     e14:	01 e0       	mov r1,r0
     e16:	71 a8       	addi r1,7
     e18:	0d 0f       	ldli r13,-16
     e1a:	d0 f0       	ldw r0,r13
     e1c:	c0 ab       	addi r0,-4
     e1e:	03 e0       	mov r3,r0
     e20:	31 f5       	stw r1,r3
     e22:	0d 0f       	ldli r13,-16
     e24:	d0 f0       	ldw r0,r13
     e26:	c0 ab       	addi r0,-4
     e28:	01 e0       	mov r1,r0
     e2a:	10 f0       	ldw r0,r1
     e2c:	02 e0       	mov r2,r0
     e2e:	20 f4       	ldbu r0,r2
     e30:	83 01       	ldli r3,24
     e32:	30 a0       	sl r0,r3
     e34:	81 01       	ldli r1,24
     e36:	10 a2       	sr r0,r1
     e38:	47 0f       	ldli r7,-12
     e3a:	7d f0       	ldw r13,r7
     e3c:	cd a8       	addi r13,12
     e3e:	7d f5       	stw r13,r7
     e40:	07 0f       	ldli r7,-16
     e42:	0d 4c       	ldfpz_inc r13,0
     e44:	7d f5       	stw r13,r7
     e46:	0e f8       	rts
     e48:	07 0f       	ldli r7,-16
     e4a:	7d f0       	ldw r13,r7
     e4c:	fd 5f       	stfpz_dec r13,-1
     e4e:	47 0f       	ldli r7,-12
     e50:	7d f0       	ldw r13,r7
     e52:	07 0f       	ldli r7,-16
     e54:	7d f5       	stw r13,r7
     e56:	47 0f       	ldli r7,-12
     e58:	7d f0       	ldw r13,r7
     e5a:	8d ab       	addi r13,-8
     e5c:	7d f5       	stw r13,r7
     e5e:	0d 0f       	ldli r13,-16
     e60:	d0 f0       	ldw r0,r13
     e62:	c0 ab       	addi r0,-4
     e64:	04 e0       	mov r4,r0
     e66:	41 f5       	stw r1,r4
     e68:	0d 0f       	ldli r13,-16
     e6a:	d0 f0       	ldw r0,r13
     e6c:	b0 ab       	addi r0,-5
     e6e:	01 e0       	mov r1,r0
     e70:	12 f7       	stb r2,r1
     e72:	0d 0f       	ldli r13,-16
     e74:	d0 f0       	ldw r0,r13
     e76:	a0 ab       	addi r0,-6
     e78:	04 e0       	mov r4,r0
     e7a:	43 f7       	stb r3,r4
     e7c:	47 0f       	ldli r7,-12
     e7e:	7d f0       	ldw r13,r7
     e80:	8d a8       	addi r13,8
     e82:	7d f5       	stw r13,r7
     e84:	07 0f       	ldli r7,-16
     e86:	0d 4c       	ldfpz_inc r13,0
     e88:	7d f5       	stw r13,r7
     e8a:	0e f8       	rts
     e8c:	02 b8       	cmpi_eq r2,0
     e8e:	11 9c       	jmpi_ct 17
     e90:	01 b8       	cmpi_eq r1,0
     e92:	10 d0       	mov_ct r0,r1
     e94:	0e 9c       	jmpi_ct 14
     e96:	2d e0       	mov r13,r2
     e98:	f2 b7       	btest r2,0x1f
     e9a:	12 81       	sli_cf r2,0x1
     e9c:	fe 8f       	jmpi_cf -2
     e9e:	00 00       	ldli r0,0
     ea0:	d2 b3       	cmpu_lt r2,r13
     ea2:	07 9c       	jmpi_ct 7
     ea4:	10 a1       	sli r0,0x1
     ea6:	12 b4       	cmpu_gt r2,r1
     ea8:	21 c3       	sub_cf r1,r2
     eaa:	10 88       	addi_cf r0,1
     eac:	12 a3       	sri r2,0x1
     eae:	f9 af       	jmpi -7
     eb0:	0e f8       	rts
     eb2:	02 b8       	cmpi_eq r2,0
     eb4:	0e 9c       	jmpi_ct 14
     eb6:	01 b8       	cmpi_eq r1,0
     eb8:	10 d0       	mov_ct r0,r1
     eba:	0b 9c       	jmpi_ct 11
     ebc:	2d e0       	mov r13,r2
     ebe:	f2 b7       	btest r2,0x1f
     ec0:	12 81       	sli_cf r2,0x1
     ec2:	fe 8f       	jmpi_cf -2
     ec4:	d2 b3       	cmpu_lt r2,r13
     ec6:	05 9c       	jmpi_ct 5
     ec8:	12 b4       	cmpu_gt r2,r1
     eca:	21 c3       	sub_cf r1,r2
     ecc:	12 a3       	sri r2,0x1
     ece:	fb af       	jmpi -5
     ed0:	10 e0       	mov r0,r1
     ed2:	0e f8       	rts
     ed4:	15 e0       	mov r5,r1
     ed6:	03 b8       	cmpi_eq r3,0
     ed8:	0b 9c       	jmpi_ct 11
     eda:	04 00       	ldli r4,0
     edc:	51 e0       	mov r1,r5
     ede:	41 e1       	add r1,r4
     ee0:	20 e0       	mov r0,r2
     ee2:	40 e1       	add r0,r4
     ee4:	00 f4       	ldbu r0,r0
     ee6:	10 f7       	stb r0,r1
     ee8:	14 a8       	addi r4,1
     eea:	34 b0       	cmp_eq r4,r3
     eec:	f8 8f       	jmpi_cf -8
     eee:	50 e0       	mov r0,r5
     ef0:	0e f8       	rts
     ef2:	10 e0       	mov r0,r1
     ef4:	03 b8       	cmpi_eq r3,0
     ef6:	07 9c       	jmpi_ct 7
     ef8:	14 e0       	mov r4,r1
     efa:	13 e1       	add r3,r1
     efc:	42 f7       	stb r2,r4
     efe:	14 a8       	addi r4,1
     f00:	34 b0       	cmp_eq r4,r3
     f02:	fd 8f       	jmpi_cf -3
     f04:	0e f8       	rts
     f06:	10 f3       	ldb r0,r1
     f08:	00 b8       	cmpi_eq r0,0
     f0a:	08 9c       	jmpi_ct 8
     f0c:	12 e0       	mov r2,r1
     f0e:	12 a8       	addi r2,1
     f10:	20 f3       	ldb r0,r2
     f12:	00 b8       	cmpi_eq r0,0
     f14:	fd 8f       	jmpi_cf -3
     f16:	20 e0       	mov r0,r2
     f18:	10 e3       	sub r0,r1
     f1a:	0e f8       	rts
     f1c:	00 fe       	nop
     f1e:	ff af       	jmpi -1
     f20:	80 08       	ldli r0,-120
     f22:	02 02       	ldli r2,32
     f24:	02 f7       	stb r2,r0
     f26:	90 ab       	addi r0,-7
     f28:	00 f4       	ldbu r0,r0
     f2a:	20 b6       	btest r0,0x2
     f2c:	06 9c       	jmpi_ct 6
     f2e:	00 fe       	nop
     f30:	10 08       	ldli r0,-127
     f32:	00 f4       	ldbu r0,r0
     f34:	20 b6       	btest r0,0x2
     f36:	fc 8f       	jmpi_cf -4
     f38:	10 08       	ldli r0,-127
     f3a:	02 f4       	ldbu r2,r0
     f3c:	00 f4       	ldbu r0,r0
     f3e:	50 b6       	btest r0,0x5
     f40:	0d 8c       	jmpi_cf 13
     f42:	22 00       	ldli r2,2
     f44:	10 08       	ldli r0,-127
     f46:	00 f4       	ldbu r0,r0
     f48:	30 b6       	btest r0,0x3
     f4a:	0c 8c       	jmpi_cf 12
     f4c:	60 08       	ldli r0,-122
     f4e:	00 f2       	ldhu r0,r0
     f50:	80 08       	ldli r0,-120
     f52:	81 02       	ldli r1,40
     f54:	01 f7       	stb r1,r0
     f56:	32 00       	ldli r2,3
     f58:	0d ac       	jmpi 13
     f5a:	62 a3       	sri r2,0x6
     f5c:	14 00       	ldli r4,1
     f5e:	42 e5       	and r2,r4
     f60:	f2 af       	jmpi -14
     f62:	60 08       	ldli r0,-122
     f64:	03 f2       	ldhu r3,r0
     f66:	20 a8       	addi r0,2
     f68:	84 02       	ldli r4,40
     f6a:	04 f7       	stb r4,r0
     f6c:	02 b8       	cmpi_eq r2,0
     f6e:	02 8c       	jmpi_cf 2
     f70:	13 f7       	stb r3,r1
     f72:	20 e0       	mov r0,r2
     f74:	0e f8       	rts
     f76:	00 00       	ldli r0,0
     f78:	0e f8       	rts
     f7a:	f9 5f       	stfpz_dec r9,-1
     f7c:	fe 5f       	stfpz_dec r14,-1
     f7e:	07 0f       	ldli r7,-16
     f80:	7d f0       	ldw r13,r7
     f82:	fd 5f       	stfpz_dec r13,-1
     f84:	47 0f       	ldli r7,-12
     f86:	7d f0       	ldw r13,r7
     f88:	07 0f       	ldli r7,-16
     f8a:	7d f5       	stw r13,r7
     f8c:	0d 0f       	ldli r13,-16
     f8e:	d0 f0       	ldw r0,r13
     f90:	c0 a8       	addi r0,12
     f92:	07 f0       	ldw r7,r0
     f94:	03 e0       	mov r3,r0
     f96:	83 a8       	addi r3,8
     f98:	31 f0       	ldw r1,r3
     f9a:	f4 00       	ldli r4,15
     f9c:	41 e5       	and r1,r4
     f9e:	16 e0       	mov r6,r1
     fa0:	04 e0       	mov r4,r0
     fa2:	44 a8       	addi r4,4
     fa4:	42 f0       	ldw r2,r4
     fa6:	02 b8       	cmpi_eq r2,0
     fa8:	60 9c       	jmpi_ct 96
     faa:	35 08       	ldli r5,-125
     fac:	09 00       	ldli r9,0
     fae:	59 f7       	stb r9,r5
     fb0:	07 f5       	stw r7,r0
     fb2:	30 f0       	ldw r0,r3
     fb4:	09 0f       	ldli r9,-16
     fb6:	90 e5       	and r0,r9
     fb8:	10 e6       	or r0,r1
     fba:	30 f5       	stw r0,r3
     fbc:	42 f5       	stw r2,r4
     fbe:	33 f0       	ldw r3,r3
     fc0:	01 03       	ldli r1,48
     fc2:	31 e5       	and r1,r3
     fc4:	01 b8       	cmpi_eq r1,0
     fc6:	47 8c       	jmpi_cf 71
     fc8:	63 b6       	btest r3,0x6
     fca:	3c 9c       	jmpi_ct 60
     fcc:	f3 00       	ldli r3,15
     fce:	63 e5       	and r3,r6
     fd0:	33 b6       	btest r3,0x3
     fd2:	31 9c       	jmpi_ct 49
     fd4:	23 b6       	btest r3,0x2
     fd6:	28 9c       	jmpi_ct 40
     fd8:	13 b6       	btest r3,0x1
     fda:	1f 9c       	jmpi_ct 31
     fdc:	03 b6       	btest r3,0x0
     fde:	18 9c       	jmpi_ct 24
     fe0:	31 08       	ldli r1,-125
     fe2:	10 f4       	ldbu r0,r1
     fe4:	40 a4       	bset r0,0x4
     fe6:	10 f7       	stb r0,r1
     fe8:	71 e0       	mov r1,r7
     fea:	00 10       	ldhi r0,0
     fec:	00 20       	ldliu r0,0x0
     fee:	80 a1       	sli r0,0x8
     ff0:	70 20       	ldliu r0,0x7
     ff2:	80 a1       	sli r0,0x8
     ff4:	60 24       	ldliu r0,0x46
     ff6:	00 ee       	jsr r0
     ff8:	02 e0       	mov r2,r0
     ffa:	42 a1       	sli r2,0x4
     ffc:	44 01       	ldli r4,20
     ffe:	40 a0       	sl r0,r4
    1000:	85 01       	ldli r5,24
    1002:	50 a2       	sr r0,r5
    1004:	51 08       	ldli r1,-123
    1006:	10 f7       	stb r0,r1
    1008:	40 08       	ldli r0,-124
    100a:	02 f7       	stb r2,r0
    100c:	2e ac       	jmpi 46
    100e:	31 08       	ldli r1,-125
    1010:	10 f4       	ldbu r0,r1
    1012:	00 a4       	bset r0,0x0
    1014:	10 f7       	stb r0,r1
    1016:	e5 af       	jmpi -27
    1018:	31 08       	ldli r1,-125
    101a:	10 f4       	ldbu r0,r1
    101c:	10 a4       	bset r0,0x1
    101e:	10 f7       	stb r0,r1
    1020:	03 b6       	btest r3,0x0
    1022:	df 8f       	jmpi_cf -33
    1024:	f5 af       	jmpi -11
    1026:	31 08       	ldli r1,-125
    1028:	10 f4       	ldbu r0,r1
    102a:	20 a4       	bset r0,0x2
    102c:	10 f7       	stb r0,r1
    102e:	13 b6       	btest r3,0x1
    1030:	d6 8f       	jmpi_cf -42
    1032:	f3 af       	jmpi -13
    1034:	31 08       	ldli r1,-125
    1036:	10 f4       	ldbu r0,r1
    1038:	30 a4       	bset r0,0x3
    103a:	10 f7       	stb r0,r1
    103c:	23 b6       	btest r3,0x2
    103e:	cd 8f       	jmpi_cf -51
    1040:	f3 af       	jmpi -13
    1042:	31 08       	ldli r1,-125
    1044:	10 f4       	ldbu r0,r1
    1046:	50 a4       	bset r0,0x5
    1048:	10 f7       	stb r0,r1
    104a:	f3 00       	ldli r3,15
    104c:	63 e5       	and r3,r6
    104e:	33 b6       	btest r3,0x3
    1050:	c2 8f       	jmpi_cf -62
    1052:	f1 af       	jmpi -15
    1054:	50 f4       	ldbu r0,r5
    1056:	08 08       	ldli r8,-128
    1058:	80 e6       	or r0,r8
    105a:	50 f7       	stb r0,r5
    105c:	01 b9       	cmpi_eq r1,16
    105e:	b5 8f       	jmpi_cf -75
    1060:	50 f4       	ldbu r0,r5
    1062:	60 a4       	bset r0,0x6
    1064:	50 f7       	stb r0,r5
    1066:	b1 af       	jmpi -79
    1068:	07 0f       	ldli r7,-16
    106a:	0d 4c       	ldfpz_inc r13,0
    106c:	7d f5       	stw r13,r7
    106e:	0e 4c       	ldfpz_inc r14,0
    1070:	09 4c       	ldfpz_inc r9,0
    1072:	0e f8       	rts
    1074:	00 00       	ldli r0,0
    1076:	0e f8       	rts
    1078:	f9 5f       	stfpz_dec r9,-1
    107a:	fa 5f       	stfpz_dec r10,-1
    107c:	fb 5f       	stfpz_dec r11,-1
    107e:	fc 5f       	stfpz_dec r12,-1
    1080:	fe 5f       	stfpz_dec r14,-1
    1082:	07 0f       	ldli r7,-16
    1084:	7d f0       	ldw r13,r7
    1086:	fd 5f       	stfpz_dec r13,-1
    1088:	47 0f       	ldli r7,-12
    108a:	7d f0       	ldw r13,r7
    108c:	07 0f       	ldli r7,-16
    108e:	7d f5       	stw r13,r7
    1090:	47 0f       	ldli r7,-12
    1092:	7d f0       	ldw r13,r7
    1094:	cd ab       	addi r13,-4
    1096:	7d f5       	stw r13,r7
    1098:	2c e0       	mov r12,r2
    109a:	3b e0       	mov r11,r3
    109c:	03 38       	cmpi_gt r3,0
    109e:	17 8c       	jmpi_cf 23
    10a0:	09 00       	ldli r9,0
    10a2:	0d 0f       	ldli r13,-16
    10a4:	da f0       	ldw r10,r13
    10a6:	fa ab       	addi r10,-1
    10a8:	a1 e0       	mov r1,r10
    10aa:	02 10       	ldhi r2,0
    10ac:	02 20       	ldliu r2,0x0
    10ae:	82 a1       	sli r2,0x8
    10b0:	72 20       	ldliu r2,0x7
    10b2:	82 a1       	sli r2,0x8
    10b4:	02 29       	ldliu r2,0x90
    10b6:	02 ee       	jsr r2
    10b8:	00 b8       	cmpi_eq r0,0
    10ba:	0a 8c       	jmpi_cf 10
    10bc:	90 e0       	mov r0,r9
    10be:	c0 e1       	add r0,r12
    10c0:	a1 f4       	ldbu r1,r10
    10c2:	01 f7       	stb r1,r0
    10c4:	19 a8       	addi r9,1
    10c6:	9b b0       	cmp_eq r11,r9
    10c8:	f0 8f       	jmpi_cf -16
    10ca:	02 ac       	jmpi 2
    10cc:	09 00       	ldli r9,0
    10ce:	90 e0       	mov r0,r9
    10d0:	47 0f       	ldli r7,-12
    10d2:	7d f0       	ldw r13,r7
    10d4:	4d a8       	addi r13,4
    10d6:	7d f5       	stw r13,r7
    10d8:	07 0f       	ldli r7,-16
    10da:	0d 4c       	ldfpz_inc r13,0
    10dc:	7d f5       	stw r13,r7
    10de:	0e 4c       	ldfpz_inc r14,0
    10e0:	0c 4c       	ldfpz_inc r12,0
    10e2:	0b 4c       	ldfpz_inc r11,0
    10e4:	0a 4c       	ldfpz_inc r10,0
    10e6:	09 4c       	ldfpz_inc r9,0
    10e8:	0e f8       	rts
    10ea:	f9 5f       	stfpz_dec r9,-1
    10ec:	fa 5f       	stfpz_dec r10,-1
    10ee:	fb 5f       	stfpz_dec r11,-1
    10f0:	fc 5f       	stfpz_dec r12,-1
    10f2:	fe 5f       	stfpz_dec r14,-1
    10f4:	07 0f       	ldli r7,-16
    10f6:	7d f0       	ldw r13,r7
    10f8:	fd 5f       	stfpz_dec r13,-1
    10fa:	47 0f       	ldli r7,-12
    10fc:	7d f0       	ldw r13,r7
    10fe:	07 0f       	ldli r7,-16
    1100:	7d f5       	stw r13,r7
    1102:	47 0f       	ldli r7,-12
    1104:	7d f0       	ldw r13,r7
    1106:	cd ab       	addi r13,-4
    1108:	7d f5       	stw r13,r7
    110a:	2b e0       	mov r11,r2
    110c:	3c e0       	mov r12,r3
    110e:	03 38       	cmpi_gt r3,0
    1110:	1f 8c       	jmpi_cf 31
    1112:	0a 00       	ldli r10,0
    1114:	0d 0f       	ldli r13,-16
    1116:	d9 f0       	ldw r9,r13
    1118:	f9 ab       	addi r9,-1
    111a:	91 e0       	mov r1,r9
    111c:	02 10       	ldhi r2,0
    111e:	02 20       	ldliu r2,0x0
    1120:	82 a1       	sli r2,0x8
    1122:	72 20       	ldliu r2,0x7
    1124:	82 a1       	sli r2,0x8
    1126:	02 29       	ldliu r2,0x90
    1128:	02 ee       	jsr r2
    112a:	00 b8       	cmpi_eq r0,0
    112c:	0d 8c       	jmpi_cf 13
    112e:	91 f4       	ldbu r1,r9
    1130:	90 f3       	ldb r0,r9
    1132:	d0 b8       	cmpi_eq r0,13
    1134:	07 9c       	jmpi_ct 7
    1136:	a0 b8       	cmpi_eq r0,10
    1138:	07 9c       	jmpi_ct 7
    113a:	b0 e0       	mov r0,r11
    113c:	a0 e1       	add r0,r10
    113e:	01 f7       	stb r1,r0
    1140:	1a a8       	addi r10,1
    1142:	ca b1       	cmp_lt r10,r12
    1144:	eb 9f       	jmpi_ct -21
    1146:	ab e1       	add r11,r10
    1148:	02 00       	ldli r2,0
    114a:	b2 f7       	stb r2,r11
    114c:	02 ac       	jmpi 2
    114e:	0a 00       	ldli r10,0
    1150:	a0 e0       	mov r0,r10
    1152:	47 0f       	ldli r7,-12
    1154:	7d f0       	ldw r13,r7
    1156:	4d a8       	addi r13,4
    1158:	7d f5       	stw r13,r7
    115a:	07 0f       	ldli r7,-16
    115c:	0d 4c       	ldfpz_inc r13,0
    115e:	7d f5       	stw r13,r7
    1160:	0e 4c       	ldfpz_inc r14,0
    1162:	0c 4c       	ldfpz_inc r12,0
    1164:	0b 4c       	ldfpz_inc r11,0
    1166:	0a 4c       	ldfpz_inc r10,0
    1168:	09 4c       	ldfpz_inc r9,0
    116a:	0e f8       	rts
    116c:	03 38       	cmpi_gt r3,0
    116e:	27 8c       	jmpi_cf 39
    1170:	04 00       	ldli r4,0
    1172:	40 e0       	mov r0,r4
    1174:	20 e1       	add r0,r2
    1176:	01 f4       	ldbu r1,r0
    1178:	10 08       	ldli r0,-127
    117a:	00 f4       	ldbu r0,r0
    117c:	10 b6       	btest r0,0x1
    117e:	06 9c       	jmpi_ct 6
    1180:	00 fe       	nop
    1182:	10 08       	ldli r0,-127
    1184:	00 f4       	ldbu r0,r0
    1186:	10 b6       	btest r0,0x1
    1188:	fc 8f       	jmpi_cf -4
    118a:	10 e0       	mov r0,r1
    118c:	85 01       	ldli r5,24
    118e:	50 a0       	sl r0,r5
    1190:	50 e8       	sra r0,r5
    1192:	61 08       	ldli r1,-122
    1194:	10 f6       	sth r0,r1
    1196:	80 08       	ldli r0,-120
    1198:	81 01       	ldli r1,24
    119a:	01 f7       	stb r1,r0
    119c:	90 ab       	addi r0,-7
    119e:	00 f4       	ldbu r0,r0
    11a0:	10 b6       	btest r0,0x1
    11a2:	06 9c       	jmpi_ct 6
    11a4:	00 fe       	nop
    11a6:	10 08       	ldli r0,-127
    11a8:	00 f4       	ldbu r0,r0
    11aa:	10 b6       	btest r0,0x1
    11ac:	fc 8f       	jmpi_cf -4
    11ae:	80 08       	ldli r0,-120
    11b0:	05 00       	ldli r5,0
    11b2:	05 f7       	stb r5,r0
    11b4:	14 a8       	addi r4,1
    11b6:	43 b0       	cmp_eq r3,r4
    11b8:	dd 8f       	jmpi_cf -35
    11ba:	02 ac       	jmpi 2
    11bc:	03 00       	ldli r3,0
    11be:	30 e0       	mov r0,r3
    11c0:	0e f8       	rts

Disassembly of section .rodata:

00000000 <.rodata>:
   0:	0a 0d       	ldli r10,-48
   2:	48 61       	ldfpw r8,20
   4:	6c 6c       	ldfpz r12,6
   6:	6f 20       	ldliu r15,0x6
   8:	57 65       	ldfpx r7,21
   a:	6c 74       	stfpx r12,6
   c:	21 0a       	ldli r1,-94
   e:	0d 00       	ldli r13,0
  10:	00 00       	ldli r0,0
  12:	00 00       	ldli r0,0
  14:	00 00       	ldli r0,0
  16:	00 00       	ldli r0,0
  18:	00 00       	ldli r0,0
  1a:	00 00       	ldli r0,0
  1c:	00 00       	ldli r0,0
  1e:	00 00       	ldli r0,0
  20:	20 50       	stfpw_inc r0,2
  22:	75 73       	stfpw r5,-9
  24:	68 62       	ldfpw r8,-26
  26:	75 74       	stfpx r5,7
  28:	74 6f       	ldfpz r4,-9
  2a:	6e 20       	ldliu r14,0x6
  2c:	31 20       	ldliu r1,0x3
  2e:	00 00       	ldli r0,0
  30:	00 00       	ldli r0,0
  32:	00 00       	ldli r0,0
  34:	00 00       	ldli r0,0
  36:	00 00       	ldli r0,0
  38:	00 00       	ldli r0,0
  3a:	00 00       	ldli r0,0
  3c:	00 00       	ldli r0,0
  3e:	00 00       	ldli r0,0
  40:	20 50       	stfpw_inc r0,2
  42:	75 73       	stfpw r5,-9
  44:	68 62       	ldfpw r8,-26
  46:	75 74       	stfpx r5,7
  48:	74 6f       	ldfpz r4,-9
  4a:	6e 20       	ldliu r14,0x6
  4c:	32 20       	ldliu r2,0x3
  4e:	00 00       	ldli r0,0
  50:	00 00       	ldli r0,0
  52:	00 00       	ldli r0,0
  54:	00 00       	ldli r0,0
  56:	00 00       	ldli r0,0
  58:	00 00       	ldli r0,0
  5a:	00 00       	ldli r0,0
  5c:	00 00       	ldli r0,0
  5e:	00 00       	ldli r0,0
  60:	20 50       	stfpw_inc r0,2
  62:	75 73       	stfpw r5,-9
  64:	68 62       	ldfpw r8,-26
  66:	75 74       	stfpx r5,7
  68:	74 6f       	ldfpz r4,-9
  6a:	6e 20       	ldliu r14,0x6
  6c:	33 20       	ldliu r3,0x3
  6e:	00 00       	ldli r0,0
  70:	00 00       	ldli r0,0
  72:	00 00       	ldli r0,0
  74:	00 00       	ldli r0,0
  76:	00 00       	ldli r0,0
  78:	00 00       	ldli r0,0
  7a:	00 00       	ldli r0,0
  7c:	00 00       	ldli r0,0
  7e:	00 00       	ldli r0,0
  80:	0d 00       	ldli r13,0
  82:	00 00       	ldli r0,0
  84:	00 00       	ldli r0,0
  86:	00 00       	ldli r0,0
  88:	00 00       	ldli r0,0
  8a:	00 00       	ldli r0,0
  8c:	00 00       	ldli r0,0
  8e:	00 00       	ldli r0,0
  90:	00 00       	ldli r0,0
  92:	00 00       	ldli r0,0
  94:	00 00       	ldli r0,0
  96:	00 00       	ldli r0,0
  98:	00 00       	ldli r0,0
  9a:	00 00       	ldli r0,0
  9c:	00 00       	ldli r0,0
  9e:	00 00       	ldli r0,0

Disassembly of section .bss:

000000a0 <.bss>:
  a0:	00 00       	ldli r0,0
  a2:	00 00       	ldli r0,0
  a4:	00 00       	ldli r0,0
  a6:	00 00       	ldli r0,0
  a8:	00 00       	ldli r0,0
  aa:	00 00       	ldli r0,0
  ac:	00 00       	ldli r0,0
  ae:	00 00       	ldli r0,0
  b0:	00 00       	ldli r0,0
  b2:	00 00       	ldli r0,0
